///////////////////////////////////////////////////////////////////////////////
//                                                                            /
// IAR C/C++ Compiler V8.10.1.10194/W32 for 8051        21/Apr/2015  17:17:57 /
// Copyright 2004-2011 IAR Systems AB.                                        /
//                                                                            /
//    Core               =  plain                                             /
//    Code model         =  banked                                            /
//    Data model         =  large                                             /
//    Calling convention =  xdata reentrant                                   /
//    Constant location  =  data_rom                                          /
//    Dptr setup         =  1,16                                              /
//    Source file        =  C:\Users\William\Desktop\±œ“µ…Ëº∆\SRC\EndDevice-P /
//                          roject-for-editing\Projects\zstack\MyEnddevice\En /
//                          dDevice\Source\EnddeviceApp.c                     /
//    Command line       =  -f C:\Users\William\Desktop\±œ“µ…Ëº∆\SRC\EndDevic /
//                          e-Project-for-editing\Projects\zstack\MyEnddevice /
//                          \EndDevice\CC2530DB\..\..\..\Tools\CC2530DB\f8wEn /
//                          dev.cfg (-DCPU32MHZ -DROOT=__near_func            /
//                          -DMAC_CFG_TX_DATA_MAX=3 -DMAC_CFG_TX_MAX=6        /
//                          -DMAC_CFG_RX_MAX=3) -f C:\Users\William\Desktop\± /
//                          œ“µ…Ëº∆\SRC\EndDevice-Project-for-editing\Project /
//                          s\zstack\MyEnddevice\EndDevice\CC2530DB\..\..\..\ /
//                          Tools\CC2530DB\f8wConfig.cfg (-DZIGBEEPRO         /
//                          -DSECURE=0 -DZG_SECURE_DYNAMIC=0 -DREFLECTOR      /
//                          -DDEFAULT_CHANLIST=0x02000000                     /
//                          -DZDAPP_CONFIG_PAN_ID=0xFFFF                      /
//                          -DNWK_START_DELAY=100 -DEXTENDED_JOINING_RANDOM_M /
//                          ASK=0x007F -DBEACON_REQUEST_DELAY=100             /
//                          -DBEACON_REQ_DELAY_MASK=0x00FF                    /
//                          -DLINK_STATUS_JITTER_MASK=0x007F                  /
//                          -DROUTE_EXPIRY_TIME=30 -DAPSC_ACK_WAIT_DURATION_P /
//                          OLLED=3000 -DNWK_INDIRECT_MSG_TIMEOUT=7           /
//                          -DMAX_RREQ_ENTRIES=8 -DAPSC_MAX_FRAME_RETRIES=3   /
//                          -DNWK_MAX_DATA_RETRIES=2                          /
//                          -DMAX_POLL_FAILURE_RETRIES=2 -DMAX_BCAST=9        /
//                          -DAPS_MAX_GROUPS=16 -DMAX_RTG_ENTRIES=40          /
//                          -DNWK_MAX_BINDING_ENTRIES=4                       /
//                          -DMAX_BINDING_CLUSTER_IDS=4                       /
//                          "-DDEFAULT_KEY={0x01, 0x03, 0x05, 0x07, 0x09,     /
//                          0x0B, 0x0D, 0x0F, 0x00, 0x02, 0x04, 0x06, 0x08,   /
//                          0x0A, 0x0C, 0x0D}" -DMAC_MAX_FRAME_SIZE=116       /
//                          -DZDNWKMGR_MIN_TRANSMISSIONS=20 "-DCONST=const    /
//                          __code" -DGENERIC=__generic                       /
//                          -DRFD_RCVC_ALWAYS_ON=FALSE -DPOLL_RATE=1000       /
//                          -DQUEUED_POLL_RATE=100 -DRESPONSE_POLL_RATE=100)  /
//                          -DREJOIN_POLL_RATE=440 C:\Users\William\Desktop\± /
//                          œ“µ…Ëº∆\SRC\EndDevice-Project-for-editing\Project /
//                          s\zstack\MyEnddevice\EndDevice\Source\EnddeviceAp /
//                          p.c -D NWK_AUTO_POLL -D NV_RESTORE=1 -D           /
//                          xZTOOL_P1 -D xMT_TASK -D xMT_SYS_FUNC -D          /
//                          xMT_ZDO_FUNC -D xLCD_SUPPORTED=DEBUG -lC          /
//                          C:\Users\William\Desktop\±œ“µ…Ëº∆\SRC\EndDevice-P /
//                          roject-for-editing\Projects\zstack\MyEnddevice\En /
//                          dDevice\CC2530DB\EndDeviceEB\List\ -lA            /
//                          C:\Users\William\Desktop\±œ“µ…Ëº∆\SRC\EndDevice-P /
//                          roject-for-editing\Projects\zstack\MyEnddevice\En /
//                          dDevice\CC2530DB\EndDeviceEB\List\                /
//                          --diag_suppress Pe001,Pa010 -o                    /
//                          C:\Users\William\Desktop\±œ“µ…Ëº∆\SRC\EndDevice-P /
//                          roject-for-editing\Projects\zstack\MyEnddevice\En /
//                          dDevice\CC2530DB\EndDeviceEB\Obj\ -e              /
//                          --no_code_motion --debug --core=plain             /
//                          --dptr=16,1 --data_model=large                    /
//                          --code_model=banked --calling_convention=xdata_re /
//                          entrant --place_constants=data_rom                /
//                          --nr_virtual_regs 16 -I                           /
//                          C:\Users\William\Desktop\±œ“µ…Ëº∆\SRC\EndDevice-P /
//                          roject-for-editing\Projects\zstack\MyEnddevice\En /
//                          dDevice\CC2530DB\ -I C:\Users\William\Desktop\±œ“ /
//                          µ…Ëº∆\SRC\EndDevice-Project-for-editing\Projects\ /
//                          zstack\MyEnddevice\EndDevice\CC2530DB\..\Source\  /
//                          -I C:\Users\William\Desktop\±œ“µ…Ëº∆\SRC\EndDevic /
//                          e-Project-for-editing\Projects\zstack\MyEnddevice /
//                          \EndDevice\CC2530DB\..\..\..\ZMain\TI2530DB\ -I   /
//                          C:\Users\William\Desktop\±œ“µ…Ëº∆\SRC\EndDevice-P /
//                          roject-for-editing\Projects\zstack\MyEnddevice\En /
//                          dDevice\CC2530DB\..\..\..\..\..\Components\hal\in /
//                          clude\ -I C:\Users\William\Desktop\±œ“µ…Ëº∆\SRC\E /
//                          ndDevice-Project-for-editing\Projects\zstack\MyEn /
//                          ddevice\EndDevice\CC2530DB\..\..\..\..\..\Compone /
//                          nts\hal\target\CC2530EB\ -I                       /
//                          C:\Users\William\Desktop\±œ“µ…Ëº∆\SRC\EndDevice-P /
//                          roject-for-editing\Projects\zstack\MyEnddevice\En /
//                          dDevice\CC2530DB\..\..\..\..\..\Components\mac\in /
//                          clude\ -I C:\Users\William\Desktop\±œ“µ…Ëº∆\SRC\E /
//                          ndDevice-Project-for-editing\Projects\zstack\MyEn /
//                          ddevice\EndDevice\CC2530DB\..\..\..\..\..\Compone /
//                          nts\mac\high_level\ -I C:\Users\William\Desktop\± /
//                          œ“µ…Ëº∆\SRC\EndDevice-Project-for-editing\Project /
//                          s\zstack\MyEnddevice\EndDevice\CC2530DB\..\..\..\ /
//                          ..\..\Components\mac\low_level\srf04\ -I          /
//                          C:\Users\William\Desktop\±œ“µ…Ëº∆\SRC\EndDevice-P /
//                          roject-for-editing\Projects\zstack\MyEnddevice\En /
//                          dDevice\CC2530DB\..\..\..\..\..\Components\mac\lo /
//                          w_level\srf04\single_chip\ -I                     /
//                          C:\Users\William\Desktop\±œ“µ…Ëº∆\SRC\EndDevice-P /
//                          roject-for-editing\Projects\zstack\MyEnddevice\En /
//                          dDevice\CC2530DB\..\..\..\..\..\Components\mt\    /
//                          -I C:\Users\William\Desktop\±œ“µ…Ëº∆\SRC\EndDevic /
//                          e-Project-for-editing\Projects\zstack\MyEnddevice /
//                          \EndDevice\CC2530DB\..\..\..\..\..\Components\osa /
//                          l\include\ -I C:\Users\William\Desktop\±œ“µ…Ëº∆\S /
//                          RC\EndDevice-Project-for-editing\Projects\zstack\ /
//                          MyEnddevice\EndDevice\CC2530DB\..\..\..\..\..\Com /
//                          ponents\services\saddr\ -I                        /
//                          C:\Users\William\Desktop\±œ“µ…Ëº∆\SRC\EndDevice-P /
//                          roject-for-editing\Projects\zstack\MyEnddevice\En /
//                          dDevice\CC2530DB\..\..\..\..\..\Components\servic /
//                          es\sdata\ -I C:\Users\William\Desktop\±œ“µ…Ëº∆\SR /
//                          C\EndDevice-Project-for-editing\Projects\zstack\M /
//                          yEnddevice\EndDevice\CC2530DB\..\..\..\..\..\Comp /
//                          onents\stack\af\ -I C:\Users\William\Desktop\±œ“µ /
//                          …Ëº∆\SRC\EndDevice-Project-for-editing\Projects\z /
//                          stack\MyEnddevice\EndDevice\CC2530DB\..\..\..\..\ /
//                          ..\Components\stack\nwk\ -I                       /
//                          C:\Users\William\Desktop\±œ“µ…Ëº∆\SRC\EndDevice-P /
//                          roject-for-editing\Projects\zstack\MyEnddevice\En /
//                          dDevice\CC2530DB\..\..\..\..\..\Components\stack\ /
//                          sapi\ -I C:\Users\William\Desktop\±œ“µ…Ëº∆\SRC\En /
//                          dDevice-Project-for-editing\Projects\zstack\MyEnd /
//                          device\EndDevice\CC2530DB\..\..\..\..\..\Componen /
//                          ts\stack\sec\ -I C:\Users\William\Desktop\±œ“µ…Ëº /
//                          ∆\SRC\EndDevice-Project-for-editing\Projects\zsta /
//                          ck\MyEnddevice\EndDevice\CC2530DB\..\..\..\..\..\ /
//                          Components\stack\sys\ -I                          /
//                          C:\Users\William\Desktop\±œ“µ…Ëº∆\SRC\EndDevice-P /
//                          roject-for-editing\Projects\zstack\MyEnddevice\En /
//                          dDevice\CC2530DB\..\..\..\..\..\Components\stack\ /
//                          zdo\ -I C:\Users\William\Desktop\±œ“µ…Ëº∆\SRC\End /
//                          Device-Project-for-editing\Projects\zstack\MyEndd /
//                          evice\EndDevice\CC2530DB\..\..\..\..\..\Component /
//                          s\zmac\ -I C:\Users\William\Desktop\±œ“µ…Ëº∆\SRC\ /
//                          EndDevice-Project-for-editing\Projects\zstack\MyE /
//                          nddevice\EndDevice\CC2530DB\..\..\..\..\..\Compon /
//                          ents\zmac\f8w\ -Ohz                               /
//    List file          =  C:\Users\William\Desktop\±œ“µ…Ëº∆\SRC\EndDevice-P /
//                          roject-for-editing\Projects\zstack\MyEnddevice\En /
//                          dDevice\CC2530DB\EndDeviceEB\List\EnddeviceApp.s5 /
//                          1                                                 /
//                                                                            /
//                                                                            /
///////////////////////////////////////////////////////////////////////////////

        NAME EnddeviceApp

        RTMODEL "__SystemLibrary", "CLib"
        RTMODEL "__calling_convention", "xdata_reentrant"
        RTMODEL "__code_model", "banked"
        RTMODEL "__core", "plain"
        RTMODEL "__data_model", "large"
        RTMODEL "__dptr_size", "16"
        RTMODEL "__extended_stack", "disabled"
        RTMODEL "__location_for_constants", "data"
        RTMODEL "__number_of_dptrs", "1"
        RTMODEL "__rt_version", "1"

        RSEG DOVERLAY:DATA:NOROOT(0)
        RSEG IOVERLAY:IDATA:NOROOT(0)
        RSEG ISTACK:IDATA:NOROOT(0)
        RSEG PSTACK:XDATA:NOROOT(0)
        RSEG XSTACK:XDATA:NOROOT(0)

        EXTERN ?BANKED_ENTER_XDATA
        EXTERN ?BANKED_LEAVE_XDATA
        EXTERN ?BDISPATCH
        EXTERN ?DEALLOC_XSTACK8
        EXTERN ?PUSH_XSTACK8_X_TWO
        EXTERN ?PUSH_XSTACK_I_THREE
        EXTERN ?PUSH_XSTACK_I_TWO
        EXTERN ?SS_SHR
        EXTERN ?V0

        PUBLIC ??EnddeviceApp_Init?relay
        FUNCTION ??EnddeviceApp_Init?relay,0203H
        PUBLIC ??EnddeviceApp_ProcessEvent?relay
        FUNCTION ??EnddeviceApp_ProcessEvent?relay,0203H
        PUBLIC ??Enddevice_Init_NV?relay
        FUNCTION ??Enddevice_Init_NV?relay,0203H
        PUBLIC EnddeviceApp_Init
        FUNCTION EnddeviceApp_Init,021203H
        ARGFRAME XSTACK, 0, STACK
        LOCFRAME XSTACK, 14, STACK
        PUBLIC EnddeviceApp_ProcessEvent
        FUNCTION EnddeviceApp_ProcessEvent,021203H
        ARGFRAME XSTACK, 0, STACK
        LOCFRAME XSTACK, 18, STACK
        PUBLIC Enddevice_Init_NV
        FUNCTION Enddevice_Init_NV,021203H
        ARGFRAME XSTACK, 11, STACK
        ARGFRAME IOVERLAY, 0, STATIC
        ARGFRAME DOVERLAY, 0, STATIC
        LOCFRAME XSTACK, 14, STACK
        PUBWEAK P1DIR
        PUBWEAK P1SEL
        PUBWEAK WDCTL
        PUBWEAK _A_IEN0
        PUBWEAK _A_P1
        
        CFI Names cfiNames0
        CFI StackFrame CFA_SP SP IDATA
        CFI StackFrame CFA_PSP16 PSP16 XDATA
        CFI StackFrame CFA_XSP16 XSP16 XDATA
        CFI StaticOverlayFrame CFA_IOVERLAY IOVERLAY
        CFI StaticOverlayFrame CFA_DOVERLAY DOVERLAY
        CFI Resource `PSW.CY`:1, `B.BR0`:1, `B.BR1`:1, `B.BR2`:1, `B.BR3`:1
        CFI Resource `B.BR4`:1, `B.BR5`:1, `B.BR6`:1, `B.BR7`:1, `VB.BR8`:1
        CFI Resource `VB.BR9`:1, `VB.BR10`:1, `VB.BR11`:1, `VB.BR12`:1
        CFI Resource `VB.BR13`:1, `VB.BR14`:1, `VB.BR15`:1, VB:8, B:8, A:8
        CFI Resource PSW:8, DPL0:8, DPH0:8, R0:8, R1:8, R2:8, R3:8, R4:8, R5:8
        CFI Resource R6:8, R7:8, V0:8, V1:8, V2:8, V3:8, V4:8, V5:8, V6:8, V7:8
        CFI Resource V8:8, V9:8, V10:8, V11:8, V12:8, V13:8, V14:8, V15:8, SP:8
        CFI Resource PSPH:8, PSPL:8, PSP16:16, XSPH:8, XSPL:8, XSP16:16
        CFI VirtualResource ?RET:24
        CFI Resource ?BRET_EXT:8
        CFI VirtualResource ?RET_HIGH:8, ?RET_LOW:8
        CFI ResourceParts PSP16 PSPH, PSPL
        CFI ResourceParts XSP16 XSPH, XSPL
        CFI ResourceParts ?RET ?BRET_EXT, ?RET_HIGH, ?RET_LOW
        CFI EndNames cfiNames0
        
        CFI Common cfiCommon0 Using cfiNames0
        CFI CodeAlign 1
        CFI DataAlign -1
        CFI ReturnAddress ?RET CODE
        CFI CFA_DOVERLAY Used
        CFI CFA_IOVERLAY Used
        CFI CFA_SP SP+-3
        CFI CFA_PSP16 PSP16+0
        CFI CFA_XSP16 XSP16+0
        CFI `PSW.CY` SameValue
        CFI `B.BR0` SameValue
        CFI `B.BR1` SameValue
        CFI `B.BR2` SameValue
        CFI `B.BR3` SameValue
        CFI `B.BR4` SameValue
        CFI `B.BR5` SameValue
        CFI `B.BR6` SameValue
        CFI `B.BR7` SameValue
        CFI `VB.BR8` SameValue
        CFI `VB.BR9` SameValue
        CFI `VB.BR10` SameValue
        CFI `VB.BR11` SameValue
        CFI `VB.BR12` SameValue
        CFI `VB.BR13` SameValue
        CFI `VB.BR14` SameValue
        CFI `VB.BR15` SameValue
        CFI VB SameValue
        CFI B Undefined
        CFI A Undefined
        CFI PSW SameValue
        CFI DPL0 SameValue
        CFI DPH0 SameValue
        CFI R0 Undefined
        CFI R1 Undefined
        CFI R2 Undefined
        CFI R3 Undefined
        CFI R4 Undefined
        CFI R5 Undefined
        CFI R6 SameValue
        CFI R7 SameValue
        CFI V0 SameValue
        CFI V1 SameValue
        CFI V2 SameValue
        CFI V3 SameValue
        CFI V4 SameValue
        CFI V5 SameValue
        CFI V6 SameValue
        CFI V7 SameValue
        CFI V8 SameValue
        CFI V9 SameValue
        CFI V10 SameValue
        CFI V11 SameValue
        CFI V12 SameValue
        CFI V13 SameValue
        CFI V14 SameValue
        CFI V15 SameValue
        CFI PSPH Undefined
        CFI PSPL Undefined
        CFI XSPH Undefined
        CFI XSPL Undefined
        CFI ?RET Concat
        CFI ?BRET_EXT Frame(CFA_SP, 3)
        CFI ?RET_HIGH Frame(CFA_SP, 2)
        CFI ?RET_LOW Frame(CFA_SP, 1)
        CFI EndCommon cfiCommon0
        
        
        CFI Common cfiCommon1 Using cfiNames0
        CFI CodeAlign 1
        CFI DataAlign -1
        CFI ReturnAddress ?RET CODE
        CFI CFA_DOVERLAY Used
        CFI CFA_IOVERLAY Used
        CFI CFA_SP SP+-2
        CFI CFA_PSP16 PSP16+0
        CFI CFA_XSP16 XSP16+0
        CFI `PSW.CY` SameValue
        CFI `B.BR0` SameValue
        CFI `B.BR1` SameValue
        CFI `B.BR2` SameValue
        CFI `B.BR3` SameValue
        CFI `B.BR4` SameValue
        CFI `B.BR5` SameValue
        CFI `B.BR6` SameValue
        CFI `B.BR7` SameValue
        CFI `VB.BR8` SameValue
        CFI `VB.BR9` SameValue
        CFI `VB.BR10` SameValue
        CFI `VB.BR11` SameValue
        CFI `VB.BR12` SameValue
        CFI `VB.BR13` SameValue
        CFI `VB.BR14` SameValue
        CFI `VB.BR15` SameValue
        CFI VB SameValue
        CFI B SameValue
        CFI A SameValue
        CFI PSW SameValue
        CFI DPL0 SameValue
        CFI DPH0 SameValue
        CFI R0 SameValue
        CFI R1 SameValue
        CFI R2 SameValue
        CFI R3 SameValue
        CFI R4 SameValue
        CFI R5 SameValue
        CFI R6 SameValue
        CFI R7 SameValue
        CFI V0 SameValue
        CFI V1 SameValue
        CFI V2 SameValue
        CFI V3 SameValue
        CFI V4 SameValue
        CFI V5 SameValue
        CFI V6 SameValue
        CFI V7 SameValue
        CFI V8 SameValue
        CFI V9 SameValue
        CFI V10 SameValue
        CFI V11 SameValue
        CFI V12 SameValue
        CFI V13 SameValue
        CFI V14 SameValue
        CFI V15 SameValue
        CFI PSPH Undefined
        CFI PSPL Undefined
        CFI XSPH Undefined
        CFI XSPL Undefined
        CFI ?RET Concat
        CFI ?BRET_EXT SameValue
        CFI ?RET_HIGH Frame(CFA_SP, 2)
        CFI ?RET_LOW Frame(CFA_SP, 1)
        CFI EndCommon cfiCommon1
        
HalLcdWriteRealTempeMod SYMBOL "HalLcdWriteRealTempeMod"
HalLcdWritePower    SYMBOL "HalLcdWritePower"
afRegister          SYMBOL "afRegister"
RegisterForKeys     SYMBOL "RegisterForKeys"
osal_memcpy         SYMBOL "osal_memcpy"
aps_AddGroup        SYMBOL "aps_AddGroup"
osal_start_timerEx  SYMBOL "osal_start_timerEx"
osal_msg_receive    SYMBOL "osal_msg_receive"
osal_msg_deallocate SYMBOL "osal_msg_deallocate"
EnddeviceApp_HandleKeys SYMBOL "EnddeviceApp_HandleKeys"
EnddeviceApp_HandleAfIncomingMessage SYMBOL "EnddeviceApp_HandleAfIncomingMessage"
EnddeviceApp_SendP2PMessage SYMBOL "EnddeviceApp_SendP2PMessage"
ControlTemperature  SYMBOL "ControlTemperature"
osal_rand           SYMBOL "osal_rand"
TemperADCSampleAndAverage SYMBOL "TemperADCSampleAndAverage"
NTC_Error_Detect    SYMBOL "NTC_Error_Detect"
HandleError         SYMBOL "HandleError"
EnddeviceApp_LookupTemp SYMBOL "EnddeviceApp_LookupTemp"
EnddeviceApp_HandleLCD SYMBOL "EnddeviceApp_HandleLCD"
osal_nv_item_init   SYMBOL "osal_nv_item_init"
osal_nv_write       SYMBOL "osal_nv_write"
osal_nv_read        SYMBOL "osal_nv_read"
??ControlTemperature?relay SYMBOL "?relay", ControlTemperature
??EnddeviceApp_HandleAfIncomingMessage?relay SYMBOL "?relay", EnddeviceApp_HandleAfIncomingMessage
??EnddeviceApp_HandleKeys?relay SYMBOL "?relay", EnddeviceApp_HandleKeys
??EnddeviceApp_HandleLCD?relay SYMBOL "?relay", EnddeviceApp_HandleLCD
??EnddeviceApp_LookupTemp?relay SYMBOL "?relay", EnddeviceApp_LookupTemp
??EnddeviceApp_SendP2PMessage?relay SYMBOL "?relay", EnddeviceApp_SendP2PMessage
??HalLcdWritePower?relay SYMBOL "?relay", HalLcdWritePower
??HalLcdWriteRealTempeMod?relay SYMBOL "?relay", HalLcdWriteRealTempeMod
??HandleError?relay SYMBOL "?relay", HandleError
??NTC_Error_Detect?relay SYMBOL "?relay", NTC_Error_Detect
??RegisterForKeys?relay SYMBOL "?relay", RegisterForKeys
??TemperADCSampleAndAverage?relay SYMBOL "?relay", TemperADCSampleAndAverage
??afRegister?relay  SYMBOL "?relay", afRegister
??aps_AddGroup?relay SYMBOL "?relay", aps_AddGroup
??osal_memcpy?relay SYMBOL "?relay", osal_memcpy
??osal_msg_deallocate?relay SYMBOL "?relay", osal_msg_deallocate
??osal_msg_receive?relay SYMBOL "?relay", osal_msg_receive
??osal_nv_item_init?relay SYMBOL "?relay", osal_nv_item_init
??osal_nv_read?relay SYMBOL "?relay", osal_nv_read
??osal_nv_write?relay SYMBOL "?relay", osal_nv_write
??osal_rand?relay   SYMBOL "?relay", osal_rand
??osal_start_timerEx?relay SYMBOL "?relay", osal_start_timerEx
EnddeviceApp_Init   SYMBOL "EnddeviceApp_Init"
??EnddeviceApp_Init?relay SYMBOL "?relay", EnddeviceApp_Init
EnddeviceApp_ProcessEvent SYMBOL "EnddeviceApp_ProcessEvent"
??EnddeviceApp_ProcessEvent?relay SYMBOL "?relay", EnddeviceApp_ProcessEvent
Enddevice_Init_NV   SYMBOL "Enddevice_Init_NV"
??Enddevice_Init_NV?relay SYMBOL "?relay", Enddevice_Init_NV

        EXTERN HalLcdWriteRealTempeMod
        FUNCTION HalLcdWriteRealTempeMod,0202H
        ARGFRAME ISTACK, 0, STACK
        ARGFRAME PSTACK, 0, STACK
        ARGFRAME XSTACK, 11, STACK
        ARGFRAME IOVERLAY, 0, STATIC
        ARGFRAME DOVERLAY, 0, STATIC
        EXTERN HalLcdWritePower
        FUNCTION HalLcdWritePower,0202H
        ARGFRAME ISTACK, 0, STACK
        ARGFRAME PSTACK, 0, STACK
        ARGFRAME XSTACK, 11, STACK
        ARGFRAME IOVERLAY, 0, STATIC
        ARGFRAME DOVERLAY, 0, STATIC
        EXTERN afRegister
        FUNCTION afRegister,0202H
        ARGFRAME ISTACK, 0, STACK
        ARGFRAME PSTACK, 0, STACK
        ARGFRAME XSTACK, 11, STACK
        ARGFRAME IOVERLAY, 0, STATIC
        ARGFRAME DOVERLAY, 0, STATIC
        EXTERN RegisterForKeys
        FUNCTION RegisterForKeys,0202H
        ARGFRAME ISTACK, 0, STACK
        ARGFRAME PSTACK, 0, STACK
        ARGFRAME XSTACK, 11, STACK
        ARGFRAME IOVERLAY, 0, STATIC
        ARGFRAME DOVERLAY, 0, STATIC
        EXTERN osal_memcpy
        FUNCTION osal_memcpy,0202H
        ARGFRAME ISTACK, 0, STACK
        ARGFRAME PSTACK, 0, STACK
        ARGFRAME XSTACK, 14, STACK
        ARGFRAME IOVERLAY, 0, STATIC
        ARGFRAME DOVERLAY, 0, STATIC
        EXTERN aps_AddGroup
        FUNCTION aps_AddGroup,0202H
        ARGFRAME ISTACK, 0, STACK
        ARGFRAME PSTACK, 0, STACK
        ARGFRAME XSTACK, 11, STACK
        ARGFRAME IOVERLAY, 0, STATIC
        ARGFRAME DOVERLAY, 0, STATIC
        EXTERN osal_start_timerEx
        FUNCTION osal_start_timerEx,0202H
        ARGFRAME ISTACK, 0, STACK
        ARGFRAME PSTACK, 0, STACK
        ARGFRAME XSTACK, 14, STACK
        ARGFRAME IOVERLAY, 0, STATIC
        ARGFRAME DOVERLAY, 0, STATIC
        EXTERN osal_msg_receive
        FUNCTION osal_msg_receive,0202H
        ARGFRAME ISTACK, 0, STACK
        ARGFRAME PSTACK, 0, STACK
        ARGFRAME XSTACK, 14, STACK
        ARGFRAME IOVERLAY, 0, STATIC
        ARGFRAME DOVERLAY, 0, STATIC
        EXTERN osal_msg_deallocate
        FUNCTION osal_msg_deallocate,0202H
        ARGFRAME ISTACK, 0, STACK
        ARGFRAME PSTACK, 0, STACK
        ARGFRAME XSTACK, 14, STACK
        ARGFRAME IOVERLAY, 0, STATIC
        ARGFRAME DOVERLAY, 0, STATIC
        EXTERN EnddeviceApp_HandleKeys
        FUNCTION EnddeviceApp_HandleKeys,0202H
        ARGFRAME ISTACK, 0, STACK
        ARGFRAME PSTACK, 0, STACK
        ARGFRAME XSTACK, 14, STACK
        ARGFRAME IOVERLAY, 0, STATIC
        ARGFRAME DOVERLAY, 0, STATIC
        EXTERN EnddeviceApp_HandleAfIncomingMessage
        FUNCTION EnddeviceApp_HandleAfIncomingMessage,0202H
        ARGFRAME ISTACK, 0, STACK
        ARGFRAME PSTACK, 0, STACK
        ARGFRAME XSTACK, 14, STACK
        ARGFRAME IOVERLAY, 0, STATIC
        ARGFRAME DOVERLAY, 0, STATIC
        EXTERN EnddeviceApp_SendP2PMessage
        FUNCTION EnddeviceApp_SendP2PMessage,0202H
        ARGFRAME ISTACK, 0, STACK
        ARGFRAME PSTACK, 0, STACK
        ARGFRAME XSTACK, 16, STACK
        ARGFRAME IOVERLAY, 0, STATIC
        ARGFRAME DOVERLAY, 0, STATIC
        EXTERN ControlTemperature
        FUNCTION ControlTemperature,0202H
        ARGFRAME ISTACK, 0, STACK
        ARGFRAME PSTACK, 0, STACK
        ARGFRAME XSTACK, 18, STACK
        ARGFRAME IOVERLAY, 0, STATIC
        ARGFRAME DOVERLAY, 0, STATIC
        EXTERN osal_rand
        FUNCTION osal_rand,0202H
        ARGFRAME ISTACK, 0, STACK
        ARGFRAME PSTACK, 0, STACK
        ARGFRAME XSTACK, 14, STACK
        ARGFRAME IOVERLAY, 0, STATIC
        ARGFRAME DOVERLAY, 0, STATIC
        EXTERN TemperADCSampleAndAverage
        FUNCTION TemperADCSampleAndAverage,0202H
        ARGFRAME ISTACK, 0, STACK
        ARGFRAME PSTACK, 0, STACK
        ARGFRAME XSTACK, 14, STACK
        ARGFRAME IOVERLAY, 0, STATIC
        ARGFRAME DOVERLAY, 0, STATIC
        EXTERN NTC_Error_Detect
        FUNCTION NTC_Error_Detect,0202H
        ARGFRAME ISTACK, 0, STACK
        ARGFRAME PSTACK, 0, STACK
        ARGFRAME XSTACK, 14, STACK
        ARGFRAME IOVERLAY, 0, STATIC
        ARGFRAME DOVERLAY, 0, STATIC
        EXTERN HandleError
        FUNCTION HandleError,0202H
        ARGFRAME ISTACK, 0, STACK
        ARGFRAME PSTACK, 0, STACK
        ARGFRAME XSTACK, 14, STACK
        ARGFRAME IOVERLAY, 0, STATIC
        ARGFRAME DOVERLAY, 0, STATIC
        EXTERN EnddeviceApp_LookupTemp
        FUNCTION EnddeviceApp_LookupTemp,0202H
        ARGFRAME ISTACK, 0, STACK
        ARGFRAME PSTACK, 0, STACK
        ARGFRAME XSTACK, 14, STACK
        ARGFRAME IOVERLAY, 0, STATIC
        ARGFRAME DOVERLAY, 0, STATIC
        EXTERN EnddeviceApp_HandleLCD
        FUNCTION EnddeviceApp_HandleLCD,0202H
        ARGFRAME ISTACK, 0, STACK
        ARGFRAME PSTACK, 0, STACK
        ARGFRAME XSTACK, 14, STACK
        ARGFRAME IOVERLAY, 0, STATIC
        ARGFRAME DOVERLAY, 0, STATIC
        EXTERN osal_nv_item_init
        FUNCTION osal_nv_item_init,0202H
        ARGFRAME ISTACK, 0, STACK
        ARGFRAME PSTACK, 0, STACK
        ARGFRAME XSTACK, 12, STACK
        ARGFRAME IOVERLAY, 0, STATIC
        ARGFRAME DOVERLAY, 0, STATIC
        EXTERN osal_nv_write
        FUNCTION osal_nv_write,0202H
        ARGFRAME ISTACK, 0, STACK
        ARGFRAME PSTACK, 0, STACK
        ARGFRAME XSTACK, 14, STACK
        ARGFRAME IOVERLAY, 0, STATIC
        ARGFRAME DOVERLAY, 0, STATIC
        EXTERN osal_nv_read
        FUNCTION osal_nv_read,0202H
        ARGFRAME ISTACK, 0, STACK
        ARGFRAME PSTACK, 0, STACK
        ARGFRAME XSTACK, 14, STACK
        ARGFRAME IOVERLAY, 0, STATIC
        ARGFRAME DOVERLAY, 0, STATIC
        EXTERN ??ControlTemperature?relay
        FUNCTION ??ControlTemperature?relay,00H
        EXTERN ??EnddeviceApp_HandleAfIncomingMessage?relay
        FUNCTION ??EnddeviceApp_HandleAfIncomingMessage?relay,00H
        EXTERN ??EnddeviceApp_HandleKeys?relay
        FUNCTION ??EnddeviceApp_HandleKeys?relay,00H
        EXTERN ??EnddeviceApp_HandleLCD?relay
        FUNCTION ??EnddeviceApp_HandleLCD?relay,00H
        EXTERN ??EnddeviceApp_LookupTemp?relay
        FUNCTION ??EnddeviceApp_LookupTemp?relay,00H
        EXTERN ??EnddeviceApp_SendP2PMessage?relay
        FUNCTION ??EnddeviceApp_SendP2PMessage?relay,00H
        EXTERN ??HalLcdWritePower?relay
        FUNCTION ??HalLcdWritePower?relay,00H
        EXTERN ??HalLcdWriteRealTempeMod?relay
        FUNCTION ??HalLcdWriteRealTempeMod?relay,00H
        EXTERN ??HandleError?relay
        FUNCTION ??HandleError?relay,00H
        EXTERN ??NTC_Error_Detect?relay
        FUNCTION ??NTC_Error_Detect?relay,00H
        EXTERN ??RegisterForKeys?relay
        FUNCTION ??RegisterForKeys?relay,00H
        EXTERN ??TemperADCSampleAndAverage?relay
        FUNCTION ??TemperADCSampleAndAverage?relay,00H
        EXTERN ??afRegister?relay
        FUNCTION ??afRegister?relay,00H
        EXTERN ??aps_AddGroup?relay
        FUNCTION ??aps_AddGroup?relay,00H
        EXTERN ??osal_memcpy?relay
        FUNCTION ??osal_memcpy?relay,00H
        EXTERN ??osal_msg_deallocate?relay
        FUNCTION ??osal_msg_deallocate?relay,00H
        EXTERN ??osal_msg_receive?relay
        FUNCTION ??osal_msg_receive?relay,00H
        EXTERN ??osal_nv_item_init?relay
        FUNCTION ??osal_nv_item_init?relay,00H
        EXTERN ??osal_nv_read?relay
        FUNCTION ??osal_nv_read?relay,00H
        EXTERN ??osal_nv_write?relay
        FUNCTION ??osal_nv_write?relay,00H
        EXTERN ??osal_rand?relay
        FUNCTION ??osal_rand?relay,00H
        EXTERN ??osal_start_timerEx?relay
        FUNCTION ??osal_start_timerEx?relay,00H
        EXTERN End_Mod
        EXTERN EnddeviceApp_Broadcast_DstAddr
        EXTERN EnddeviceApp_Group
        EXTERN EnddeviceApp_Group_DstAddr
        EXTERN EnddeviceApp_NwkState
        EXTERN EnddeviceApp_P2PDstAddr
        EXTERN EnddeviceApp_SimpleDesc
        EXTERN EnddeviceApp_TaskID
        EXTERN EnddeviceApp_TransID
        EXTERN EnddeviceApp_epDesc
        EXTERN Error_Code
        EXTERN FL_Temperature
        EXTERN GroupId
        EXTERN LINKED
        EXTERN MsgBuf
        EXTERN MyDeviceId
        EXTERN PANID
        EXTERN POWER
        EXTERN RM_Temperature
        EXTERN Real_Tem_Mod
        EXTERN SetFL_Temperature
        EXTERN SetRM_Temperature
        EXTERN _NIB
        EXTERN debugnum
        EXTERN sample_tick
        EXTERN send_tick

// C:\Users\William\Desktop\±œ“µ…Ëº∆\SRC\EndDevice-Project-for-editing\Projects\zstack\MyEnddevice\EndDevice\Source\EnddeviceApp.c
//    1 /**************************************************************************************************
//    2   Filename:       EnddeviceApp.c
//    3   Revised:        $Date: 2009-03-18 15:56:27 -0700 (Wed, 18 Mar 2009) $
//    4   Revision:       $Revision: 19453 $
//    5 
//    6   Description:    Enddevice Application (no Profile).
//    7 **************************************************************************************************/
//    8 
//    9 /*********************************************************************
//   10   
//   11  
//   12 *********************************************************************/
//   13 
//   14 /*********************************************************************
//   15  * INCLUDES
//   16  */
//   17 #include "EnddeviceVariable.h"

        ASEGN SFR_AN:DATA:NOROOT,090H
// union <unnamed> volatile __sfr _A_P1
_A_P1:
        DATA8
        DS 1

        ASEGN SFR_AN:DATA:NOROOT,0a8H
// union <unnamed> volatile __sfr _A_IEN0
_A_IEN0:
        DATA8
        DS 1

        ASEGN SFR_AN:DATA:NOROOT,0c9H
// unsigned char volatile __sfr WDCTL
WDCTL:
        DATA8
        DS 1

        ASEGN SFR_AN:DATA:NOROOT,0f4H
// unsigned char volatile __sfr P1SEL
P1SEL:
        DATA8
        DS 1

        ASEGN SFR_AN:DATA:NOROOT,0feH
// unsigned char volatile __sfr P1DIR
P1DIR:
        DATA8
        DS 1
//   18 #include "EnddeviceApp.h"
//   19 #include "EnddeviceAF.h"
//   20 #include "Enddevicekey.h"
//   21 #include "EnddeviceLCD.h"
//   22 #include "EnddeviceSampleADC.h"
//   23 #include "EnddeviceError.h"
//   24 #include "NTC_Table.h"
//   25 #include "TemperatureControl.h"
//   26 
//   27 
//   28 
//   29 //#include"MT_UART.c"
//   30 /*********************************************************************
//   31  * MACROS
//   32  */
//   33 
//   34 /*********************************************************************
//   35  * CONSTANTS
//   36  */
//   37 
//   38 /*********************************************************************
//   39  * TYPEDEFS
//   40  */
//   41 
//   42 /*********************************************************************
//   43  * LOCAL FUNCTIONS
//   44  */
//   45 
//   46 /*********************************************************************
//   47  * NETWORK LAYER CALLBACKS
//   48  */
//   49 
//   50 /*********************************************************************
//   51  * PUBLIC FUNCTIONS
//   52  */
//   53 
//   54 /*********************************************************************
//   55  * @fn      EnddeviceApp_Init
//   56  *
//   57  * @brief   Initialization function for the Generic App Task.
//   58  *          This is called during initialization and should contain
//   59  *          any application specific initialization (ie. hardware
//   60  *          initialization/setup, table initialization, power up
//   61  *          notificaiton ... ).
//   62  *
//   63  * @param   task_id - the ID assigned by OSAL.  This ID should be
//   64  *                    used to send messages and set timers.
//   65  *
//   66  * @return  none
//   67  */

        RSEG BANKED_CODE:CODE:NOROOT(0)
//   68 void EnddeviceApp_Init( uint8 task_id )
EnddeviceApp_Init:
        CFI Block cfiBlock0 Using cfiCommon0
        CFI Function EnddeviceApp_Init
        CODE
//   69 { 
        FUNCALL EnddeviceApp_Init, Enddevice_Init_NV
        LOCFRAME ISTACK, 0, STACK
        LOCFRAME PSTACK, 0, STACK
        LOCFRAME XSTACK, 11, STACK
        LOCFRAME IOVERLAY, 0, STATIC
        LOCFRAME DOVERLAY, 0, STATIC
        ARGFRAME ISTACK, 0, STACK
        ARGFRAME PSTACK, 0, STACK
        ARGFRAME XSTACK, 11, STACK
        ARGFRAME IOVERLAY, 0, STATIC
        ARGFRAME DOVERLAY, 0, STATIC
        FUNCALL EnddeviceApp_Init, HalLcdWriteRealTempeMod
        LOCFRAME ISTACK, 0, STACK
        LOCFRAME PSTACK, 0, STACK
        LOCFRAME XSTACK, 11, STACK
        LOCFRAME IOVERLAY, 0, STATIC
        LOCFRAME DOVERLAY, 0, STATIC
        ARGFRAME ISTACK, 0, STACK
        ARGFRAME PSTACK, 0, STACK
        ARGFRAME XSTACK, 11, STACK
        ARGFRAME IOVERLAY, 0, STATIC
        ARGFRAME DOVERLAY, 0, STATIC
        FUNCALL EnddeviceApp_Init, HalLcdWritePower
        LOCFRAME ISTACK, 0, STACK
        LOCFRAME PSTACK, 0, STACK
        LOCFRAME XSTACK, 11, STACK
        LOCFRAME IOVERLAY, 0, STATIC
        LOCFRAME DOVERLAY, 0, STATIC
        ARGFRAME ISTACK, 0, STACK
        ARGFRAME PSTACK, 0, STACK
        ARGFRAME XSTACK, 11, STACK
        ARGFRAME IOVERLAY, 0, STATIC
        ARGFRAME DOVERLAY, 0, STATIC
        FUNCALL EnddeviceApp_Init, afRegister
        LOCFRAME ISTACK, 0, STACK
        LOCFRAME PSTACK, 0, STACK
        LOCFRAME XSTACK, 11, STACK
        LOCFRAME IOVERLAY, 0, STATIC
        LOCFRAME DOVERLAY, 0, STATIC
        ARGFRAME ISTACK, 0, STACK
        ARGFRAME PSTACK, 0, STACK
        ARGFRAME XSTACK, 11, STACK
        ARGFRAME IOVERLAY, 0, STATIC
        ARGFRAME DOVERLAY, 0, STATIC
        FUNCALL EnddeviceApp_Init, RegisterForKeys
        LOCFRAME ISTACK, 0, STACK
        LOCFRAME PSTACK, 0, STACK
        LOCFRAME XSTACK, 11, STACK
        LOCFRAME IOVERLAY, 0, STATIC
        LOCFRAME DOVERLAY, 0, STATIC
        ARGFRAME ISTACK, 0, STACK
        ARGFRAME PSTACK, 0, STACK
        ARGFRAME XSTACK, 11, STACK
        ARGFRAME IOVERLAY, 0, STATIC
        ARGFRAME DOVERLAY, 0, STATIC
        FUNCALL EnddeviceApp_Init, osal_memcpy
        LOCFRAME ISTACK, 0, STACK
        LOCFRAME PSTACK, 0, STACK
        LOCFRAME XSTACK, 14, STACK
        LOCFRAME IOVERLAY, 0, STATIC
        LOCFRAME DOVERLAY, 0, STATIC
        ARGFRAME ISTACK, 0, STACK
        ARGFRAME PSTACK, 0, STACK
        ARGFRAME XSTACK, 14, STACK
        ARGFRAME IOVERLAY, 0, STATIC
        ARGFRAME DOVERLAY, 0, STATIC
        FUNCALL EnddeviceApp_Init, aps_AddGroup
        LOCFRAME ISTACK, 0, STACK
        LOCFRAME PSTACK, 0, STACK
        LOCFRAME XSTACK, 11, STACK
        LOCFRAME IOVERLAY, 0, STATIC
        LOCFRAME DOVERLAY, 0, STATIC
        ARGFRAME ISTACK, 0, STACK
        ARGFRAME PSTACK, 0, STACK
        ARGFRAME XSTACK, 11, STACK
        ARGFRAME IOVERLAY, 0, STATIC
        ARGFRAME DOVERLAY, 0, STATIC
        FUNCALL EnddeviceApp_Init, osal_start_timerEx
        LOCFRAME ISTACK, 0, STACK
        LOCFRAME PSTACK, 0, STACK
        LOCFRAME XSTACK, 11, STACK
        LOCFRAME IOVERLAY, 0, STATIC
        LOCFRAME DOVERLAY, 0, STATIC
        ARGFRAME ISTACK, 0, STACK
        ARGFRAME PSTACK, 0, STACK
        ARGFRAME XSTACK, 11, STACK
        ARGFRAME IOVERLAY, 0, STATIC
        ARGFRAME DOVERLAY, 0, STATIC
        MOV     A,#-0xb
        LCALL   ?BANKED_ENTER_XDATA
        CFI DPH0 load(1, XDATA, add(CFA_XSP16, literal(-1)))
        CFI DPL0 load(1, XDATA, add(CFA_XSP16, literal(-2)))
        CFI ?BRET_EXT load(1, XDATA, add(CFA_XSP16, literal(-3)))
        CFI ?RET_HIGH load(1, XDATA, add(CFA_XSP16, literal(-4)))
        CFI ?RET_LOW load(1, XDATA, add(CFA_XSP16, literal(-5)))
        CFI R7 load(1, XDATA, add(CFA_XSP16, literal(-6)))
        CFI V2 load(1, XDATA, add(CFA_XSP16, literal(-7)))
        CFI V1 load(1, XDATA, add(CFA_XSP16, literal(-8)))
        CFI V0 load(1, XDATA, add(CFA_XSP16, literal(-9)))
        CFI VB load(1, XDATA, add(CFA_XSP16, literal(-10)))
        CFI R6 load(1, XDATA, add(CFA_XSP16, literal(-11)))
        CFI CFA_SP SP+0
        CFI CFA_XSP16 add(XSP16, 11)
        ; Saved register size: 11
        ; Auto size: 0
        MOV     A,R1
//   70   //set the TaskID, 
//   71   EnddeviceApp_TaskID = task_id;
        MOV     DPTR,#EnddeviceApp_TaskID
        MOVX    @DPTR,A
//   72   EnddeviceApp_NwkState = DEV_INIT;
        MOV     DPTR,#EnddeviceApp_NwkState
        MOV     A,#0x1
        MOVX    @DPTR,A
//   73   EnddeviceApp_TransID = 0;
        MOV     DPTR,#EnddeviceApp_TransID
        CLR     A
        MOVX    @DPTR,A
//   74  // PANID = _NIB.nwkPanId;
//   75   P1SEL &= ~(BV(2));// set the P1_2 to be the GPIO to control the relay
        ANL     0xf4,#0xfb
//   76   P1DIR |= BV(2);   // set to be output pin
        ORL     0xfe,#0x4
//   77   REL_CTL = 0; // open the relay,shut down the heater
        CLR     0x90.2
//   78 
//   79   Enddevice_Init_NV();
        ; Setup parameters for call to function Enddevice_Init_NV
        LCALL   ??Enddevice_Init_NV?relay
//   80  // HalLcdWriteEndMod(End_Mod);
//   81   
//   82   HalLcdWriteRealTempeMod(Real_Tem_Mod);
        ; Setup parameters for call to function HalLcdWriteRealTempeMod
        MOV     DPTR,#Real_Tem_Mod
        MOVX    A,@DPTR
        MOV     R1,A
        LCALL   ??HalLcdWriteRealTempeMod?relay
//   83   HalLcdWritePower(TRUE);  // write the power picture
        ; Setup parameters for call to function HalLcdWritePower
        MOV     R1,#0x1
        LCALL   ??HalLcdWritePower?relay
//   84   
//   85  // HalLcdWriteSetTemperature(SetRM_Temperature);
//   86  // HalLcdWriteRealTemperature(RM_Temperature);
//   87 
//   88 #if defined ( HOLD_AUTO_START )
//   89   // HOLD_AUTO_START is a compile option that will surpress ZDApp
//   90   //  from starting the device and wait for the application to
//   91   //  start the device.
//   92    ZDOInitDevice(0);
//   93 #endif
//   94 
//   95   // Setup for the  broadcast address
//   96   // Broadcast to everyone--------------------by Zimuge
//   97   EnddeviceApp_Broadcast_DstAddr.addrMode = (afAddrMode_t)AddrBroadcast;
        MOV     DPTR,#EnddeviceApp_Broadcast_DstAddr + 8
        MOV     A,#0xf
        MOVX    @DPTR,A
//   98   EnddeviceApp_Broadcast_DstAddr.endPoint = EnddeviceApp_ENDPOINT;
        INC     DPTR
        MOV     A,#0x14
        MOVX    @DPTR,A
//   99   EnddeviceApp_Broadcast_DstAddr.addr.shortAddr = 0xFFFF;
        MOV     DPTR,#EnddeviceApp_Broadcast_DstAddr
        MOV     A,#-0x1
        MOVX    @DPTR,A
        INC     DPTR
        MOVX    @DPTR,A
//  100 
//  101   // Setup for the group  address - Group 1
//  102   // send message to the group--------------------by Zimuge
//  103   EnddeviceApp_Group_DstAddr.addrMode = (afAddrMode_t)afAddrGroup;
        MOV     DPTR,#EnddeviceApp_Group_DstAddr + 8
        MOV     A,#0x1
        MOVX    @DPTR,A
//  104   EnddeviceApp_Group_DstAddr.endPoint = EnddeviceApp_ENDPOINT;
        INC     DPTR
        MOV     A,#0x14
        MOVX    @DPTR,A
//  105   EnddeviceApp_Group_DstAddr.addr.shortAddr = GroupId;
        LCALL   ?Subroutine7 & 0xFFFF
??CrossCallReturnLabel_8:
        MOV     DPTR,#EnddeviceApp_Group_DstAddr
        MOV     A,R0
        MOVX    @DPTR,A
        INC     DPTR
        MOV     A,R1
        MOVX    @DPTR,A
//  106   
//  107   // Setup for the point-2-point address -0x0000(coordinator)
//  108   // send message to the coordinator--------------------by Zimuge
//  109   EnddeviceApp_P2PDstAddr.addrMode = (afAddrMode_t)afAddr16Bit;
        MOV     DPTR,#EnddeviceApp_P2PDstAddr + 8
        MOV     A,#0x2
        MOVX    @DPTR,A
//  110   EnddeviceApp_P2PDstAddr.endPoint = EnddeviceApp_ENDPOINT;
        INC     DPTR
        MOV     A,#0x14
        MOVX    @DPTR,A
//  111   EnddeviceApp_P2PDstAddr.addr.shortAddr = 0x0000;
        MOV     DPTR,#EnddeviceApp_P2PDstAddr
        CLR     A
        MOVX    @DPTR,A
        INC     DPTR
        MOVX    @DPTR,A
//  112   
//  113   // Fill out the endpoint description.
//  114   EnddeviceApp_epDesc.endPoint = EnddeviceApp_ENDPOINT;
        MOV     DPTR,#EnddeviceApp_epDesc
        MOV     A,#0x14
        MOVX    @DPTR,A
//  115   EnddeviceApp_epDesc.task_id = &EnddeviceApp_TaskID;
        INC     DPTR
        MOV     A,#EnddeviceApp_TaskID & 0xff
        MOVX    @DPTR,A
        INC     DPTR
        MOV     A,#(EnddeviceApp_TaskID >> 8) & 0xff
        MOVX    @DPTR,A
//  116   EnddeviceApp_epDesc.simpleDesc
//  117             = (SimpleDescriptionFormat_t *)&EnddeviceApp_SimpleDesc;
        INC     DPTR
        MOV     A,#EnddeviceApp_SimpleDesc & 0xff
        MOVX    @DPTR,A
        INC     DPTR
        MOV     A,#(EnddeviceApp_SimpleDesc >> 8) & 0xff
        MOVX    @DPTR,A
//  118   EnddeviceApp_epDesc.latencyReq = noLatencyReqs;
        INC     DPTR
        CLR     A
        MOVX    @DPTR,A
//  119 
//  120   
//  121   // Register the endpoint description with the AF
//  122   afRegister( &EnddeviceApp_epDesc );
        ; Setup parameters for call to function afRegister
        MOV     R2,#EnddeviceApp_epDesc & 0xff
        MOV     R3,#(EnddeviceApp_epDesc >> 8) & 0xff
        LCALL   ??afRegister?relay
//  123 
//  124   // Register for all key events - This app will handle all key events
//  125  // register the key for the EnddeviceApp, so that the key's  callback 
//  126  //function can send the message to the osal,then the Enddevice can handle the event!!---------by Zimuge
//  127   RegisterForKeys( EnddeviceApp_TaskID );
        ; Setup parameters for call to function RegisterForKeys
        MOV     DPTR,#EnddeviceApp_TaskID
        MOVX    A,@DPTR
        MOV     R1,A
        LCALL   ??RegisterForKeys?relay
//  128 
//  129   // By default, all devices start out in Group 1
//  130   EnddeviceApp_Group.ID = GroupId;//0x0001
        LCALL   ?Subroutine7 & 0xFFFF
??CrossCallReturnLabel_9:
        MOV     DPTR,#EnddeviceApp_Group
        MOV     A,R0
        MOVX    @DPTR,A
        INC     DPTR
        MOV     A,R1
        MOVX    @DPTR,A
//  131   osal_memcpy( EnddeviceApp_Group.name, "Group 0", 7  );
        ; Setup parameters for call to function osal_memcpy
        MOV     ?V0 + 0,#`?<Constant "Group 0">` & 0xff
        MOV     ?V0 + 1,#(`?<Constant "Group 0">` >> 8) & 0xff
        MOV     ?V0 + 2,#0x0
        MOV     R0,#?V0 + 0
        LCALL   ?PUSH_XSTACK_I_THREE
        CFI CFA_XSP16 add(XSP16, 14)
        MOV     R4,#0x7
        MOV     R5,#0x0
        MOV     R2,#(EnddeviceApp_Group + 2) & 0xff
        MOV     R3,#((EnddeviceApp_Group + 2) >> 8) & 0xff
        LCALL   ??osal_memcpy?relay
        MOV     A,#0x3
        LCALL   ?DEALLOC_XSTACK8
        CFI CFA_XSP16 add(XSP16, 11)
//  132   aps_AddGroup( EnddeviceApp_ENDPOINT, &EnddeviceApp_Group );
        ; Setup parameters for call to function aps_AddGroup
        MOV     R2,#EnddeviceApp_Group & 0xff
        MOV     R3,#(EnddeviceApp_Group >> 8) & 0xff
        MOV     R1,#0x14
        LCALL   ??aps_AddGroup?relay
//  133   
//  134   // Start scan the LCD periodic
//  135   osal_start_timerEx(EnddeviceApp_TaskID,
//  136                      EnddeviceApp_SCAN_LCD_MSG_EVT ,
//  137                      EnddeviceApp_SCAN_LCD_DURATION);
        ; Setup parameters for call to function osal_start_timerEx
        LCALL   ?Subroutine6 & 0xFFFF
//  138   
//  139 }
??CrossCallReturnLabel_10:
        MOV     R7,#0x3
        LJMP    ?BANKED_LEAVE_XDATA
        CFI EndBlock cfiBlock0
        REQUIRE P1SEL
        REQUIRE P1DIR
        REQUIRE _A_P1

        RSEG BANKED_CODE:CODE:NOROOT(0)
?Subroutine7:
        CFI Block cfiCond1 Using cfiCommon0
        CFI NoFunction
        CFI Conditional ??CrossCallReturnLabel_8
        CFI R6 load(1, XDATA, add(CFA_XSP16, literal(-11)))
        CFI VB load(1, XDATA, add(CFA_XSP16, literal(-10)))
        CFI V0 load(1, XDATA, add(CFA_XSP16, literal(-9)))
        CFI V1 load(1, XDATA, add(CFA_XSP16, literal(-8)))
        CFI V2 load(1, XDATA, add(CFA_XSP16, literal(-7)))
        CFI R7 load(1, XDATA, add(CFA_XSP16, literal(-6)))
        CFI ?RET_LOW load(1, XDATA, add(CFA_XSP16, literal(-5)))
        CFI ?RET_HIGH load(1, XDATA, add(CFA_XSP16, literal(-4)))
        CFI ?BRET_EXT load(1, XDATA, add(CFA_XSP16, literal(-3)))
        CFI DPL0 load(1, XDATA, add(CFA_XSP16, literal(-2)))
        CFI DPH0 load(1, XDATA, add(CFA_XSP16, literal(-1)))
        CFI CFA_SP SP+0
        CFI CFA_XSP16 add(XSP16, 11)
        CFI Block cfiCond2 Using cfiCommon0
        CFI (cfiCond2) NoFunction
        CFI (cfiCond2) Conditional ??CrossCallReturnLabel_9
        CFI (cfiCond2) R6 load(1, XDATA, add(CFA_XSP16, literal(-11)))
        CFI (cfiCond2) VB load(1, XDATA, add(CFA_XSP16, literal(-10)))
        CFI (cfiCond2) V0 load(1, XDATA, add(CFA_XSP16, literal(-9)))
        CFI (cfiCond2) V1 load(1, XDATA, add(CFA_XSP16, literal(-8)))
        CFI (cfiCond2) V2 load(1, XDATA, add(CFA_XSP16, literal(-7)))
        CFI (cfiCond2) R7 load(1, XDATA, add(CFA_XSP16, literal(-6)))
        CFI (cfiCond2) ?RET_LOW load(1, XDATA, add(CFA_XSP16, literal(-5)))
        CFI (cfiCond2) ?RET_HIGH load(1, XDATA, add(CFA_XSP16, literal(-4)))
        CFI (cfiCond2) ?BRET_EXT load(1, XDATA, add(CFA_XSP16, literal(-3)))
        CFI (cfiCond2) DPL0 load(1, XDATA, add(CFA_XSP16, literal(-2)))
        CFI (cfiCond2) DPH0 load(1, XDATA, add(CFA_XSP16, literal(-1)))
        CFI (cfiCond2) CFA_SP SP+0
        CFI (cfiCond2) CFA_XSP16 add(XSP16, 11)
        CFI Block cfiPicker3 Using cfiCommon1
        CFI (cfiPicker3) NoFunction
        CFI (cfiPicker3) Picker
        MOV     DPTR,#GroupId
        CFI EndBlock cfiCond1
        CFI EndBlock cfiCond2
        CFI EndBlock cfiPicker3
        REQUIRE ??Subroutine9_0
        ; // Fall through to label ??Subroutine9_0

        RSEG BANKED_CODE:CODE:NOROOT(0)
??Subroutine9_0:
        CFI Block cfiCond4 Using cfiCommon0
        CFI NoFunction
        CFI Conditional ??CrossCallReturnLabel_6
        CFI R6 load(1, XDATA, add(CFA_XSP16, literal(-14)))
        CFI VB load(1, XDATA, add(CFA_XSP16, literal(-13)))
        CFI V0 load(1, XDATA, add(CFA_XSP16, literal(-12)))
        CFI V1 load(1, XDATA, add(CFA_XSP16, literal(-11)))
        CFI V2 load(1, XDATA, add(CFA_XSP16, literal(-10)))
        CFI V3 load(1, XDATA, add(CFA_XSP16, literal(-9)))
        CFI V4 load(1, XDATA, add(CFA_XSP16, literal(-8)))
        CFI V5 load(1, XDATA, add(CFA_XSP16, literal(-7)))
        CFI R7 load(1, XDATA, add(CFA_XSP16, literal(-6)))
        CFI ?RET_LOW load(1, XDATA, add(CFA_XSP16, literal(-5)))
        CFI ?RET_HIGH load(1, XDATA, add(CFA_XSP16, literal(-4)))
        CFI ?BRET_EXT load(1, XDATA, add(CFA_XSP16, literal(-3)))
        CFI DPL0 load(1, XDATA, add(CFA_XSP16, literal(-2)))
        CFI DPH0 load(1, XDATA, add(CFA_XSP16, literal(-1)))
        CFI CFA_SP SP+0
        CFI CFA_XSP16 add(XSP16, 14)
        CFI Block cfiCond5 Using cfiCommon0
        CFI (cfiCond5) NoFunction
        CFI (cfiCond5) Conditional ??CrossCallReturnLabel_7
        CFI (cfiCond5) R6 load(1, XDATA, add(CFA_XSP16, literal(-14)))
        CFI (cfiCond5) VB load(1, XDATA, add(CFA_XSP16, literal(-13)))
        CFI (cfiCond5) V0 load(1, XDATA, add(CFA_XSP16, literal(-12)))
        CFI (cfiCond5) V1 load(1, XDATA, add(CFA_XSP16, literal(-11)))
        CFI (cfiCond5) V2 load(1, XDATA, add(CFA_XSP16, literal(-10)))
        CFI (cfiCond5) V3 load(1, XDATA, add(CFA_XSP16, literal(-9)))
        CFI (cfiCond5) V4 load(1, XDATA, add(CFA_XSP16, literal(-8)))
        CFI (cfiCond5) V5 load(1, XDATA, add(CFA_XSP16, literal(-7)))
        CFI (cfiCond5) R7 load(1, XDATA, add(CFA_XSP16, literal(-6)))
        CFI (cfiCond5) ?RET_LOW load(1, XDATA, add(CFA_XSP16, literal(-5)))
        CFI (cfiCond5) ?RET_HIGH load(1, XDATA, add(CFA_XSP16, literal(-4)))
        CFI (cfiCond5) ?BRET_EXT load(1, XDATA, add(CFA_XSP16, literal(-3)))
        CFI (cfiCond5) DPL0 load(1, XDATA, add(CFA_XSP16, literal(-2)))
        CFI (cfiCond5) DPH0 load(1, XDATA, add(CFA_XSP16, literal(-1)))
        CFI (cfiCond5) CFA_SP SP+0
        CFI (cfiCond5) CFA_XSP16 add(XSP16, 14)
        CFI Block cfiCond6 Using cfiCommon0
        CFI (cfiCond6) NoFunction
        CFI (cfiCond6) Conditional ??CrossCallReturnLabel_8
        CFI (cfiCond6) R6 load(1, XDATA, add(CFA_XSP16, literal(-11)))
        CFI (cfiCond6) VB load(1, XDATA, add(CFA_XSP16, literal(-10)))
        CFI (cfiCond6) V0 load(1, XDATA, add(CFA_XSP16, literal(-9)))
        CFI (cfiCond6) V1 load(1, XDATA, add(CFA_XSP16, literal(-8)))
        CFI (cfiCond6) V2 load(1, XDATA, add(CFA_XSP16, literal(-7)))
        CFI (cfiCond6) R7 load(1, XDATA, add(CFA_XSP16, literal(-6)))
        CFI (cfiCond6) ?RET_LOW load(1, XDATA, add(CFA_XSP16, literal(-5)))
        CFI (cfiCond6) ?RET_HIGH load(1, XDATA, add(CFA_XSP16, literal(-4)))
        CFI (cfiCond6) ?BRET_EXT load(1, XDATA, add(CFA_XSP16, literal(-3)))
        CFI (cfiCond6) DPL0 load(1, XDATA, add(CFA_XSP16, literal(-2)))
        CFI (cfiCond6) DPH0 load(1, XDATA, add(CFA_XSP16, literal(-1)))
        CFI (cfiCond6) CFA_SP SP+0
        CFI (cfiCond6) CFA_XSP16 add(XSP16, 11)
        CFI Block cfiCond7 Using cfiCommon0
        CFI (cfiCond7) NoFunction
        CFI (cfiCond7) Conditional ??CrossCallReturnLabel_9
        CFI (cfiCond7) R6 load(1, XDATA, add(CFA_XSP16, literal(-11)))
        CFI (cfiCond7) VB load(1, XDATA, add(CFA_XSP16, literal(-10)))
        CFI (cfiCond7) V0 load(1, XDATA, add(CFA_XSP16, literal(-9)))
        CFI (cfiCond7) V1 load(1, XDATA, add(CFA_XSP16, literal(-8)))
        CFI (cfiCond7) V2 load(1, XDATA, add(CFA_XSP16, literal(-7)))
        CFI (cfiCond7) R7 load(1, XDATA, add(CFA_XSP16, literal(-6)))
        CFI (cfiCond7) ?RET_LOW load(1, XDATA, add(CFA_XSP16, literal(-5)))
        CFI (cfiCond7) ?RET_HIGH load(1, XDATA, add(CFA_XSP16, literal(-4)))
        CFI (cfiCond7) ?BRET_EXT load(1, XDATA, add(CFA_XSP16, literal(-3)))
        CFI (cfiCond7) DPL0 load(1, XDATA, add(CFA_XSP16, literal(-2)))
        CFI (cfiCond7) DPH0 load(1, XDATA, add(CFA_XSP16, literal(-1)))
        CFI (cfiCond7) CFA_SP SP+0
        CFI (cfiCond7) CFA_XSP16 add(XSP16, 11)
        CFI Block cfiPicker8 Using cfiCommon1
        CFI (cfiPicker8) NoFunction
        CFI (cfiPicker8) Picker
        MOVX    A,@DPTR
        MOV     R0,A
        INC     DPTR
        MOVX    A,@DPTR
        MOV     R1,A
        RET
        CFI EndBlock cfiCond4
        CFI EndBlock cfiCond5
        CFI EndBlock cfiCond6
        CFI EndBlock cfiCond7
        CFI EndBlock cfiPicker8

        RSEG BANKED_CODE:CODE:NOROOT(0)
?Subroutine6:
        CFI Block cfiCond9 Using cfiCommon0
        CFI NoFunction
        CFI Conditional ??CrossCallReturnLabel_10
        CFI R6 load(1, XDATA, add(CFA_XSP16, literal(-11)))
        CFI VB load(1, XDATA, add(CFA_XSP16, literal(-10)))
        CFI V0 load(1, XDATA, add(CFA_XSP16, literal(-9)))
        CFI V1 load(1, XDATA, add(CFA_XSP16, literal(-8)))
        CFI V2 load(1, XDATA, add(CFA_XSP16, literal(-7)))
        CFI R7 load(1, XDATA, add(CFA_XSP16, literal(-6)))
        CFI ?RET_LOW load(1, XDATA, add(CFA_XSP16, literal(-5)))
        CFI ?RET_HIGH load(1, XDATA, add(CFA_XSP16, literal(-4)))
        CFI ?BRET_EXT load(1, XDATA, add(CFA_XSP16, literal(-3)))
        CFI DPL0 load(1, XDATA, add(CFA_XSP16, literal(-2)))
        CFI DPH0 load(1, XDATA, add(CFA_XSP16, literal(-1)))
        CFI CFA_SP SP+0
        CFI CFA_XSP16 add(XSP16, 11)
        CFI Block cfiCond10 Using cfiCommon0
        CFI (cfiCond10) NoFunction
        CFI (cfiCond10) Conditional ??CrossCallReturnLabel_11
        CFI (cfiCond10) R6 load(1, XDATA, add(CFA_XSP16, literal(-14)))
        CFI (cfiCond10) VB load(1, XDATA, add(CFA_XSP16, literal(-13)))
        CFI (cfiCond10) V0 load(1, XDATA, add(CFA_XSP16, literal(-12)))
        CFI (cfiCond10) V1 load(1, XDATA, add(CFA_XSP16, literal(-11)))
        CFI (cfiCond10) V2 load(1, XDATA, add(CFA_XSP16, literal(-10)))
        CFI (cfiCond10) V3 load(1, XDATA, add(CFA_XSP16, literal(-9)))
        CFI (cfiCond10) V4 load(1, XDATA, add(CFA_XSP16, literal(-8)))
        CFI (cfiCond10) V5 load(1, XDATA, add(CFA_XSP16, literal(-7)))
        CFI (cfiCond10) R7 load(1, XDATA, add(CFA_XSP16, literal(-6)))
        CFI (cfiCond10) ?RET_LOW load(1, XDATA, add(CFA_XSP16, literal(-5)))
        CFI (cfiCond10) ?RET_HIGH load(1, XDATA, add(CFA_XSP16, literal(-4)))
        CFI (cfiCond10) ?BRET_EXT load(1, XDATA, add(CFA_XSP16, literal(-3)))
        CFI (cfiCond10) DPL0 load(1, XDATA, add(CFA_XSP16, literal(-2)))
        CFI (cfiCond10) DPH0 load(1, XDATA, add(CFA_XSP16, literal(-1)))
        CFI (cfiCond10) CFA_SP SP+0
        CFI (cfiCond10) CFA_XSP16 add(XSP16, 14)
        CFI Block cfiPicker11 Using cfiCommon1
        CFI (cfiPicker11) NoFunction
        CFI (cfiPicker11) Picker
        MOV     R4,#-0x38
        MOV     R5,#0x0
        MOV     R2,#0x2
        CFI EndBlock cfiCond9
        CFI EndBlock cfiCond10
        CFI EndBlock cfiPicker11
        REQUIRE ??Subroutine10_0
        ; // Fall through to label ??Subroutine10_0

        RSEG BANKED_CODE:CODE:NOROOT(0)
??Subroutine10_0:
        CFI Block cfiCond12 Using cfiCommon0
        CFI NoFunction
        CFI Conditional ??CrossCallReturnLabel_12
        CFI R6 load(1, XDATA, add(CFA_XSP16, literal(-14)))
        CFI VB load(1, XDATA, add(CFA_XSP16, literal(-13)))
        CFI V0 load(1, XDATA, add(CFA_XSP16, literal(-12)))
        CFI V1 load(1, XDATA, add(CFA_XSP16, literal(-11)))
        CFI V2 load(1, XDATA, add(CFA_XSP16, literal(-10)))
        CFI V3 load(1, XDATA, add(CFA_XSP16, literal(-9)))
        CFI V4 load(1, XDATA, add(CFA_XSP16, literal(-8)))
        CFI V5 load(1, XDATA, add(CFA_XSP16, literal(-7)))
        CFI R7 load(1, XDATA, add(CFA_XSP16, literal(-6)))
        CFI ?RET_LOW load(1, XDATA, add(CFA_XSP16, literal(-5)))
        CFI ?RET_HIGH load(1, XDATA, add(CFA_XSP16, literal(-4)))
        CFI ?BRET_EXT load(1, XDATA, add(CFA_XSP16, literal(-3)))
        CFI DPL0 load(1, XDATA, add(CFA_XSP16, literal(-2)))
        CFI DPH0 load(1, XDATA, add(CFA_XSP16, literal(-1)))
        CFI CFA_SP SP+0
        CFI CFA_XSP16 add(XSP16, 14)
        CFI Block cfiCond13 Using cfiCommon0
        CFI (cfiCond13) NoFunction
        CFI (cfiCond13) Conditional ??CrossCallReturnLabel_13
        CFI (cfiCond13) R6 load(1, XDATA, add(CFA_XSP16, literal(-14)))
        CFI (cfiCond13) VB load(1, XDATA, add(CFA_XSP16, literal(-13)))
        CFI (cfiCond13) V0 load(1, XDATA, add(CFA_XSP16, literal(-12)))
        CFI (cfiCond13) V1 load(1, XDATA, add(CFA_XSP16, literal(-11)))
        CFI (cfiCond13) V2 load(1, XDATA, add(CFA_XSP16, literal(-10)))
        CFI (cfiCond13) V3 load(1, XDATA, add(CFA_XSP16, literal(-9)))
        CFI (cfiCond13) V4 load(1, XDATA, add(CFA_XSP16, literal(-8)))
        CFI (cfiCond13) V5 load(1, XDATA, add(CFA_XSP16, literal(-7)))
        CFI (cfiCond13) R7 load(1, XDATA, add(CFA_XSP16, literal(-6)))
        CFI (cfiCond13) ?RET_LOW load(1, XDATA, add(CFA_XSP16, literal(-5)))
        CFI (cfiCond13) ?RET_HIGH load(1, XDATA, add(CFA_XSP16, literal(-4)))
        CFI (cfiCond13) ?BRET_EXT load(1, XDATA, add(CFA_XSP16, literal(-3)))
        CFI (cfiCond13) DPL0 load(1, XDATA, add(CFA_XSP16, literal(-2)))
        CFI (cfiCond13) DPH0 load(1, XDATA, add(CFA_XSP16, literal(-1)))
        CFI (cfiCond13) CFA_SP SP+0
        CFI (cfiCond13) CFA_XSP16 add(XSP16, 14)
        CFI Block cfiCond14 Using cfiCommon0
        CFI (cfiCond14) NoFunction
        CFI (cfiCond14) Conditional ??CrossCallReturnLabel_10
        CFI (cfiCond14) R6 load(1, XDATA, add(CFA_XSP16, literal(-11)))
        CFI (cfiCond14) VB load(1, XDATA, add(CFA_XSP16, literal(-10)))
        CFI (cfiCond14) V0 load(1, XDATA, add(CFA_XSP16, literal(-9)))
        CFI (cfiCond14) V1 load(1, XDATA, add(CFA_XSP16, literal(-8)))
        CFI (cfiCond14) V2 load(1, XDATA, add(CFA_XSP16, literal(-7)))
        CFI (cfiCond14) R7 load(1, XDATA, add(CFA_XSP16, literal(-6)))
        CFI (cfiCond14) ?RET_LOW load(1, XDATA, add(CFA_XSP16, literal(-5)))
        CFI (cfiCond14) ?RET_HIGH load(1, XDATA, add(CFA_XSP16, literal(-4)))
        CFI (cfiCond14) ?BRET_EXT load(1, XDATA, add(CFA_XSP16, literal(-3)))
        CFI (cfiCond14) DPL0 load(1, XDATA, add(CFA_XSP16, literal(-2)))
        CFI (cfiCond14) DPH0 load(1, XDATA, add(CFA_XSP16, literal(-1)))
        CFI (cfiCond14) CFA_SP SP+0
        CFI (cfiCond14) CFA_XSP16 add(XSP16, 11)
        CFI Block cfiCond15 Using cfiCommon0
        CFI (cfiCond15) NoFunction
        CFI (cfiCond15) Conditional ??CrossCallReturnLabel_11
        CFI (cfiCond15) R6 load(1, XDATA, add(CFA_XSP16, literal(-14)))
        CFI (cfiCond15) VB load(1, XDATA, add(CFA_XSP16, literal(-13)))
        CFI (cfiCond15) V0 load(1, XDATA, add(CFA_XSP16, literal(-12)))
        CFI (cfiCond15) V1 load(1, XDATA, add(CFA_XSP16, literal(-11)))
        CFI (cfiCond15) V2 load(1, XDATA, add(CFA_XSP16, literal(-10)))
        CFI (cfiCond15) V3 load(1, XDATA, add(CFA_XSP16, literal(-9)))
        CFI (cfiCond15) V4 load(1, XDATA, add(CFA_XSP16, literal(-8)))
        CFI (cfiCond15) V5 load(1, XDATA, add(CFA_XSP16, literal(-7)))
        CFI (cfiCond15) R7 load(1, XDATA, add(CFA_XSP16, literal(-6)))
        CFI (cfiCond15) ?RET_LOW load(1, XDATA, add(CFA_XSP16, literal(-5)))
        CFI (cfiCond15) ?RET_HIGH load(1, XDATA, add(CFA_XSP16, literal(-4)))
        CFI (cfiCond15) ?BRET_EXT load(1, XDATA, add(CFA_XSP16, literal(-3)))
        CFI (cfiCond15) DPL0 load(1, XDATA, add(CFA_XSP16, literal(-2)))
        CFI (cfiCond15) DPH0 load(1, XDATA, add(CFA_XSP16, literal(-1)))
        CFI (cfiCond15) CFA_SP SP+0
        CFI (cfiCond15) CFA_XSP16 add(XSP16, 14)
        CFI Block cfiPicker16 Using cfiCommon1
        CFI (cfiPicker16) NoFunction
        CFI (cfiPicker16) Picker
        MOV     R3,#0x0
        MOV     DPTR,#EnddeviceApp_TaskID
        MOVX    A,@DPTR
        MOV     R1,A
        LCALL   ??osal_start_timerEx?relay
        RET
        CFI EndBlock cfiCond12
        CFI EndBlock cfiCond13
        CFI EndBlock cfiCond14
        CFI EndBlock cfiCond15
        CFI EndBlock cfiPicker16
//  140 
//  141 /*********************************************************************
//  142  * @fn      EnddeviceApp_ProcessEvent
//  143  *
//  144  * @brief   Generic Application Task event processor.  This function
//  145  *          is called to process all events for the task.  Events
//  146  *          include timers, messages and any other user defined events.
//  147  *
//  148  * @param   task_id  - The OSAL assigned task ID.
//  149  * @param   events - events to process.  This is a bit map and can
//  150  *                   contain more than one event.
//  151  *
//  152  * @return  none
//  153  */

        RSEG BANKED_CODE:CODE:NOROOT(0)
//  154 uint16 EnddeviceApp_ProcessEvent( uint8 task_id, uint16 events )
EnddeviceApp_ProcessEvent:
        CFI Block cfiBlock17 Using cfiCommon0
        CFI Function EnddeviceApp_ProcessEvent
        CODE
//  155 {
        FUNCALL EnddeviceApp_ProcessEvent, osal_msg_receive
        LOCFRAME ISTACK, 0, STACK
        LOCFRAME PSTACK, 0, STACK
        LOCFRAME XSTACK, 14, STACK
        LOCFRAME IOVERLAY, 0, STATIC
        LOCFRAME DOVERLAY, 0, STATIC
        ARGFRAME ISTACK, 0, STACK
        ARGFRAME PSTACK, 0, STACK
        ARGFRAME XSTACK, 14, STACK
        ARGFRAME IOVERLAY, 0, STATIC
        ARGFRAME DOVERLAY, 0, STATIC
        FUNCALL EnddeviceApp_ProcessEvent, osal_msg_deallocate
        LOCFRAME ISTACK, 0, STACK
        LOCFRAME PSTACK, 0, STACK
        LOCFRAME XSTACK, 14, STACK
        LOCFRAME IOVERLAY, 0, STATIC
        LOCFRAME DOVERLAY, 0, STATIC
        ARGFRAME ISTACK, 0, STACK
        ARGFRAME PSTACK, 0, STACK
        ARGFRAME XSTACK, 14, STACK
        ARGFRAME IOVERLAY, 0, STATIC
        ARGFRAME DOVERLAY, 0, STATIC
        FUNCALL EnddeviceApp_ProcessEvent, osal_msg_receive
        LOCFRAME ISTACK, 0, STACK
        LOCFRAME PSTACK, 0, STACK
        LOCFRAME XSTACK, 14, STACK
        LOCFRAME IOVERLAY, 0, STATIC
        LOCFRAME DOVERLAY, 0, STATIC
        ARGFRAME ISTACK, 0, STACK
        ARGFRAME PSTACK, 0, STACK
        ARGFRAME XSTACK, 14, STACK
        ARGFRAME IOVERLAY, 0, STATIC
        ARGFRAME DOVERLAY, 0, STATIC
        FUNCALL EnddeviceApp_ProcessEvent, EnddeviceApp_HandleKeys
        LOCFRAME ISTACK, 0, STACK
        LOCFRAME PSTACK, 0, STACK
        LOCFRAME XSTACK, 14, STACK
        LOCFRAME IOVERLAY, 0, STATIC
        LOCFRAME DOVERLAY, 0, STATIC
        ARGFRAME ISTACK, 0, STACK
        ARGFRAME PSTACK, 0, STACK
        ARGFRAME XSTACK, 14, STACK
        ARGFRAME IOVERLAY, 0, STATIC
        ARGFRAME DOVERLAY, 0, STATIC
        FUNCALL EnddeviceApp_ProcessEvent, EnddeviceApp_HandleAfIncomingMessage
        LOCFRAME ISTACK, 0, STACK
        LOCFRAME PSTACK, 0, STACK
        LOCFRAME XSTACK, 14, STACK
        LOCFRAME IOVERLAY, 0, STATIC
        LOCFRAME DOVERLAY, 0, STATIC
        ARGFRAME ISTACK, 0, STACK
        ARGFRAME PSTACK, 0, STACK
        ARGFRAME XSTACK, 14, STACK
        ARGFRAME IOVERLAY, 0, STATIC
        ARGFRAME DOVERLAY, 0, STATIC
        FUNCALL EnddeviceApp_ProcessEvent, EnddeviceApp_SendP2PMessage
        LOCFRAME ISTACK, 0, STACK
        LOCFRAME PSTACK, 0, STACK
        LOCFRAME XSTACK, 16, STACK
        LOCFRAME IOVERLAY, 0, STATIC
        LOCFRAME DOVERLAY, 0, STATIC
        ARGFRAME ISTACK, 0, STACK
        ARGFRAME PSTACK, 0, STACK
        ARGFRAME XSTACK, 16, STACK
        ARGFRAME IOVERLAY, 0, STATIC
        ARGFRAME DOVERLAY, 0, STATIC
        FUNCALL EnddeviceApp_ProcessEvent, EnddeviceApp_SendP2PMessage
        LOCFRAME ISTACK, 0, STACK
        LOCFRAME PSTACK, 0, STACK
        LOCFRAME XSTACK, 16, STACK
        LOCFRAME IOVERLAY, 0, STATIC
        LOCFRAME DOVERLAY, 0, STATIC
        ARGFRAME ISTACK, 0, STACK
        ARGFRAME PSTACK, 0, STACK
        ARGFRAME XSTACK, 16, STACK
        ARGFRAME IOVERLAY, 0, STATIC
        ARGFRAME DOVERLAY, 0, STATIC
        FUNCALL EnddeviceApp_ProcessEvent, EnddeviceApp_SendP2PMessage
        LOCFRAME ISTACK, 0, STACK
        LOCFRAME PSTACK, 0, STACK
        LOCFRAME XSTACK, 16, STACK
        LOCFRAME IOVERLAY, 0, STATIC
        LOCFRAME DOVERLAY, 0, STATIC
        ARGFRAME ISTACK, 0, STACK
        ARGFRAME PSTACK, 0, STACK
        ARGFRAME XSTACK, 16, STACK
        ARGFRAME IOVERLAY, 0, STATIC
        ARGFRAME DOVERLAY, 0, STATIC
        FUNCALL EnddeviceApp_ProcessEvent, EnddeviceApp_SendP2PMessage
        LOCFRAME ISTACK, 0, STACK
        LOCFRAME PSTACK, 0, STACK
        LOCFRAME XSTACK, 16, STACK
        LOCFRAME IOVERLAY, 0, STATIC
        LOCFRAME DOVERLAY, 0, STATIC
        ARGFRAME ISTACK, 0, STACK
        ARGFRAME PSTACK, 0, STACK
        ARGFRAME XSTACK, 16, STACK
        ARGFRAME IOVERLAY, 0, STATIC
        ARGFRAME DOVERLAY, 0, STATIC
        FUNCALL EnddeviceApp_ProcessEvent, EnddeviceApp_SendP2PMessage
        LOCFRAME ISTACK, 0, STACK
        LOCFRAME PSTACK, 0, STACK
        LOCFRAME XSTACK, 16, STACK
        LOCFRAME IOVERLAY, 0, STATIC
        LOCFRAME DOVERLAY, 0, STATIC
        ARGFRAME ISTACK, 0, STACK
        ARGFRAME PSTACK, 0, STACK
        ARGFRAME XSTACK, 16, STACK
        ARGFRAME IOVERLAY, 0, STATIC
        ARGFRAME DOVERLAY, 0, STATIC
        FUNCALL EnddeviceApp_ProcessEvent, osal_start_timerEx
        LOCFRAME ISTACK, 0, STACK
        LOCFRAME PSTACK, 0, STACK
        LOCFRAME XSTACK, 14, STACK
        LOCFRAME IOVERLAY, 0, STATIC
        LOCFRAME DOVERLAY, 0, STATIC
        ARGFRAME ISTACK, 0, STACK
        ARGFRAME PSTACK, 0, STACK
        ARGFRAME XSTACK, 14, STACK
        ARGFRAME IOVERLAY, 0, STATIC
        ARGFRAME DOVERLAY, 0, STATIC
        FUNCALL EnddeviceApp_ProcessEvent, EnddeviceApp_SendP2PMessage
        LOCFRAME ISTACK, 0, STACK
        LOCFRAME PSTACK, 0, STACK
        LOCFRAME XSTACK, 16, STACK
        LOCFRAME IOVERLAY, 0, STATIC
        LOCFRAME DOVERLAY, 0, STATIC
        ARGFRAME ISTACK, 0, STACK
        ARGFRAME PSTACK, 0, STACK
        ARGFRAME XSTACK, 16, STACK
        ARGFRAME IOVERLAY, 0, STATIC
        ARGFRAME DOVERLAY, 0, STATIC
        FUNCALL EnddeviceApp_ProcessEvent, EnddeviceApp_SendP2PMessage
        LOCFRAME ISTACK, 0, STACK
        LOCFRAME PSTACK, 0, STACK
        LOCFRAME XSTACK, 16, STACK
        LOCFRAME IOVERLAY, 0, STATIC
        LOCFRAME DOVERLAY, 0, STATIC
        ARGFRAME ISTACK, 0, STACK
        ARGFRAME PSTACK, 0, STACK
        ARGFRAME XSTACK, 16, STACK
        ARGFRAME IOVERLAY, 0, STATIC
        ARGFRAME DOVERLAY, 0, STATIC
        FUNCALL EnddeviceApp_ProcessEvent, EnddeviceApp_SendP2PMessage
        LOCFRAME ISTACK, 0, STACK
        LOCFRAME PSTACK, 0, STACK
        LOCFRAME XSTACK, 16, STACK
        LOCFRAME IOVERLAY, 0, STATIC
        LOCFRAME DOVERLAY, 0, STATIC
        ARGFRAME ISTACK, 0, STACK
        ARGFRAME PSTACK, 0, STACK
        ARGFRAME XSTACK, 16, STACK
        ARGFRAME IOVERLAY, 0, STATIC
        ARGFRAME DOVERLAY, 0, STATIC
        FUNCALL EnddeviceApp_ProcessEvent, EnddeviceApp_SendP2PMessage
        LOCFRAME ISTACK, 0, STACK
        LOCFRAME PSTACK, 0, STACK
        LOCFRAME XSTACK, 16, STACK
        LOCFRAME IOVERLAY, 0, STATIC
        LOCFRAME DOVERLAY, 0, STATIC
        ARGFRAME ISTACK, 0, STACK
        ARGFRAME PSTACK, 0, STACK
        ARGFRAME XSTACK, 16, STACK
        ARGFRAME IOVERLAY, 0, STATIC
        ARGFRAME DOVERLAY, 0, STATIC
        FUNCALL EnddeviceApp_ProcessEvent, ControlTemperature
        LOCFRAME ISTACK, 0, STACK
        LOCFRAME PSTACK, 0, STACK
        LOCFRAME XSTACK, 18, STACK
        LOCFRAME IOVERLAY, 0, STATIC
        LOCFRAME DOVERLAY, 0, STATIC
        ARGFRAME ISTACK, 0, STACK
        ARGFRAME PSTACK, 0, STACK
        ARGFRAME XSTACK, 18, STACK
        ARGFRAME IOVERLAY, 0, STATIC
        ARGFRAME DOVERLAY, 0, STATIC
        FUNCALL EnddeviceApp_ProcessEvent, EnddeviceApp_SendP2PMessage
        LOCFRAME ISTACK, 0, STACK
        LOCFRAME PSTACK, 0, STACK
        LOCFRAME XSTACK, 16, STACK
        LOCFRAME IOVERLAY, 0, STATIC
        LOCFRAME DOVERLAY, 0, STATIC
        ARGFRAME ISTACK, 0, STACK
        ARGFRAME PSTACK, 0, STACK
        ARGFRAME XSTACK, 16, STACK
        ARGFRAME IOVERLAY, 0, STATIC
        ARGFRAME DOVERLAY, 0, STATIC
        FUNCALL EnddeviceApp_ProcessEvent, osal_rand
        LOCFRAME ISTACK, 0, STACK
        LOCFRAME PSTACK, 0, STACK
        LOCFRAME XSTACK, 14, STACK
        LOCFRAME IOVERLAY, 0, STATIC
        LOCFRAME DOVERLAY, 0, STATIC
        ARGFRAME ISTACK, 0, STACK
        ARGFRAME PSTACK, 0, STACK
        ARGFRAME XSTACK, 14, STACK
        ARGFRAME IOVERLAY, 0, STATIC
        ARGFRAME DOVERLAY, 0, STATIC
        FUNCALL EnddeviceApp_ProcessEvent, osal_start_timerEx
        LOCFRAME ISTACK, 0, STACK
        LOCFRAME PSTACK, 0, STACK
        LOCFRAME XSTACK, 14, STACK
        LOCFRAME IOVERLAY, 0, STATIC
        LOCFRAME DOVERLAY, 0, STATIC
        ARGFRAME ISTACK, 0, STACK
        ARGFRAME PSTACK, 0, STACK
        ARGFRAME XSTACK, 14, STACK
        ARGFRAME IOVERLAY, 0, STATIC
        ARGFRAME DOVERLAY, 0, STATIC
        FUNCALL EnddeviceApp_ProcessEvent, TemperADCSampleAndAverage
        LOCFRAME ISTACK, 0, STACK
        LOCFRAME PSTACK, 0, STACK
        LOCFRAME XSTACK, 14, STACK
        LOCFRAME IOVERLAY, 0, STATIC
        LOCFRAME DOVERLAY, 0, STATIC
        ARGFRAME ISTACK, 0, STACK
        ARGFRAME PSTACK, 0, STACK
        ARGFRAME XSTACK, 14, STACK
        ARGFRAME IOVERLAY, 0, STATIC
        ARGFRAME DOVERLAY, 0, STATIC
        FUNCALL EnddeviceApp_ProcessEvent, TemperADCSampleAndAverage
        LOCFRAME ISTACK, 0, STACK
        LOCFRAME PSTACK, 0, STACK
        LOCFRAME XSTACK, 14, STACK
        LOCFRAME IOVERLAY, 0, STATIC
        LOCFRAME DOVERLAY, 0, STATIC
        ARGFRAME ISTACK, 0, STACK
        ARGFRAME PSTACK, 0, STACK
        ARGFRAME XSTACK, 14, STACK
        ARGFRAME IOVERLAY, 0, STATIC
        ARGFRAME DOVERLAY, 0, STATIC
        FUNCALL EnddeviceApp_ProcessEvent, NTC_Error_Detect
        LOCFRAME ISTACK, 0, STACK
        LOCFRAME PSTACK, 0, STACK
        LOCFRAME XSTACK, 14, STACK
        LOCFRAME IOVERLAY, 0, STATIC
        LOCFRAME DOVERLAY, 0, STATIC
        ARGFRAME ISTACK, 0, STACK
        ARGFRAME PSTACK, 0, STACK
        ARGFRAME XSTACK, 14, STACK
        ARGFRAME IOVERLAY, 0, STATIC
        ARGFRAME DOVERLAY, 0, STATIC
        FUNCALL EnddeviceApp_ProcessEvent, HandleError
        LOCFRAME ISTACK, 0, STACK
        LOCFRAME PSTACK, 0, STACK
        LOCFRAME XSTACK, 14, STACK
        LOCFRAME IOVERLAY, 0, STATIC
        LOCFRAME DOVERLAY, 0, STATIC
        ARGFRAME ISTACK, 0, STACK
        ARGFRAME PSTACK, 0, STACK
        ARGFRAME XSTACK, 14, STACK
        ARGFRAME IOVERLAY, 0, STATIC
        ARGFRAME DOVERLAY, 0, STATIC
        FUNCALL EnddeviceApp_ProcessEvent, EnddeviceApp_LookupTemp
        LOCFRAME ISTACK, 0, STACK
        LOCFRAME PSTACK, 0, STACK
        LOCFRAME XSTACK, 14, STACK
        LOCFRAME IOVERLAY, 0, STATIC
        LOCFRAME DOVERLAY, 0, STATIC
        ARGFRAME ISTACK, 0, STACK
        ARGFRAME PSTACK, 0, STACK
        ARGFRAME XSTACK, 14, STACK
        ARGFRAME IOVERLAY, 0, STATIC
        ARGFRAME DOVERLAY, 0, STATIC
        FUNCALL EnddeviceApp_ProcessEvent, EnddeviceApp_LookupTemp
        LOCFRAME ISTACK, 0, STACK
        LOCFRAME PSTACK, 0, STACK
        LOCFRAME XSTACK, 14, STACK
        LOCFRAME IOVERLAY, 0, STATIC
        LOCFRAME DOVERLAY, 0, STATIC
        ARGFRAME ISTACK, 0, STACK
        ARGFRAME PSTACK, 0, STACK
        ARGFRAME XSTACK, 14, STACK
        ARGFRAME IOVERLAY, 0, STATIC
        ARGFRAME DOVERLAY, 0, STATIC
        FUNCALL EnddeviceApp_ProcessEvent, EnddeviceApp_HandleLCD
        LOCFRAME ISTACK, 0, STACK
        LOCFRAME PSTACK, 0, STACK
        LOCFRAME XSTACK, 14, STACK
        LOCFRAME IOVERLAY, 0, STATIC
        LOCFRAME DOVERLAY, 0, STATIC
        ARGFRAME ISTACK, 0, STACK
        ARGFRAME PSTACK, 0, STACK
        ARGFRAME XSTACK, 14, STACK
        ARGFRAME IOVERLAY, 0, STATIC
        ARGFRAME DOVERLAY, 0, STATIC
        FUNCALL EnddeviceApp_ProcessEvent, osal_start_timerEx
        LOCFRAME ISTACK, 0, STACK
        LOCFRAME PSTACK, 0, STACK
        LOCFRAME XSTACK, 14, STACK
        LOCFRAME IOVERLAY, 0, STATIC
        LOCFRAME DOVERLAY, 0, STATIC
        ARGFRAME ISTACK, 0, STACK
        ARGFRAME PSTACK, 0, STACK
        ARGFRAME XSTACK, 14, STACK
        ARGFRAME IOVERLAY, 0, STATIC
        ARGFRAME DOVERLAY, 0, STATIC
        MOV     A,#-0xe
        LCALL   ?BANKED_ENTER_XDATA
        CFI DPH0 load(1, XDATA, add(CFA_XSP16, literal(-1)))
        CFI DPL0 load(1, XDATA, add(CFA_XSP16, literal(-2)))
        CFI ?BRET_EXT load(1, XDATA, add(CFA_XSP16, literal(-3)))
        CFI ?RET_HIGH load(1, XDATA, add(CFA_XSP16, literal(-4)))
        CFI ?RET_LOW load(1, XDATA, add(CFA_XSP16, literal(-5)))
        CFI R7 load(1, XDATA, add(CFA_XSP16, literal(-6)))
        CFI V5 load(1, XDATA, add(CFA_XSP16, literal(-7)))
        CFI V4 load(1, XDATA, add(CFA_XSP16, literal(-8)))
        CFI V3 load(1, XDATA, add(CFA_XSP16, literal(-9)))
        CFI V2 load(1, XDATA, add(CFA_XSP16, literal(-10)))
        CFI V1 load(1, XDATA, add(CFA_XSP16, literal(-11)))
        CFI V0 load(1, XDATA, add(CFA_XSP16, literal(-12)))
        CFI VB load(1, XDATA, add(CFA_XSP16, literal(-13)))
        CFI R6 load(1, XDATA, add(CFA_XSP16, literal(-14)))
        CFI CFA_SP SP+0
        CFI CFA_XSP16 add(XSP16, 14)
        ; Saved register size: 14
        ; Auto size: 0
        MOV     A,R2
        MOV     R6,A
        MOV     A,R3
        MOV     R7,A
//  156   afIncomingMSGPacket_t *MSGpkt;
//  157   (void)task_id;  // Intentionally unreferenced parameter
//  158 
//  159   if ( events & SYS_EVENT_MSG )
        ANL     A,#0x80
        JNZ     $+5
        LJMP    ??EnddeviceApp_ProcessEvent_0 & 0xFFFF
//  160   {
//  161     MSGpkt = (afIncomingMSGPacket_t *)osal_msg_receive( EnddeviceApp_TaskID );
        ; Setup parameters for call to function osal_msg_receive
        SJMP    ??EnddeviceApp_ProcessEvent_1
//  162     while ( MSGpkt )
//  163     {
//  164       switch (MSGpkt->hdr.event)
//  165       {
//  166         // Received when a key is pressed
//  167         case KEY_CHANGE:
//  168           EnddeviceApp_HandleKeys( ((keyChange_t *)MSGpkt)->state, ((keyChange_t *)MSGpkt)->keys );
//  169           break;
//  170 
//  171         // Received when a messages is received (OTA) for this endpoint
//  172         case AF_INCOMING_MSG_CMD:
//  173           EnddeviceApp_HandleAfIncomingMessage( MSGpkt );
//  174           break;
//  175 
//  176         // Received whenever the device changes state in the network
//  177         case ZDO_STATE_CHANGE:
//  178           EnddeviceApp_NwkState = (devStates_t)(MSGpkt->hdr.status);
//  179           if((EnddeviceApp_NwkState == DEV_END_DEVICE))
//  180           {
//  181             PANID = _NIB.nwkPanId;
//  182             debugnum = MyDeviceId;
//  183             LINKED = TRUE; // for the wifi mode , the device is connected to the net
//  184            
//  185             // register the device id in the gateway
//  186             MsgBuf[0] = 0x01;
//  187             MsgBuf[1] = MyDeviceId;
//  188             MsgBuf[2] = CMD_SET_NEW_DEVICEID;
//  189             MsgBuf[3] = MyDeviceId;
//  190             EnddeviceApp_SendP2PMessage(ENDDEVICE_DATA_CLUSTERID,4,MsgBuf);
//  191             
//  192             // send the initial SetRM_Temperature parameter
//  193             MsgBuf[0] = 1;
//  194             MsgBuf[1] = MyDeviceId;
//  195             MsgBuf[2] = CMD_SET_ROOM_TEMPER;
//  196             MsgBuf[3] = SetRM_Temperature;
//  197             EnddeviceApp_SendP2PMessage(ENDDEVICE_DATA_CLUSTERID,4,MsgBuf);
//  198             
//  199             // send the initial SetFL_Temperature parameter
//  200             MsgBuf[0] = 1;
//  201             MsgBuf[1] = MyDeviceId;
//  202             MsgBuf[2] = CMD_SET_FLOOR_TEMPER;
//  203             MsgBuf[3] = SetFL_Temperature;
//  204             EnddeviceApp_SendP2PMessage(ENDDEVICE_DATA_CLUSTERID,4,MsgBuf);
//  205             
//  206             // send the initial POWER parameter
//  207             MsgBuf[0] = 1;
//  208             MsgBuf[1] = MyDeviceId;
//  209             MsgBuf[2] = CMD_START_OR_SHUTDOWN;
//  210             MsgBuf[3] = POWER;
//  211             EnddeviceApp_SendP2PMessage(ENDDEVICE_DATA_CLUSTERID,4,MsgBuf);
//  212            
//  213             // send the initial mod parameter
//  214             MsgBuf[0] = 1;
//  215             MsgBuf[1] = MyDeviceId;
//  216             MsgBuf[2] = CMD_SET_MODE;
//  217             MsgBuf[3] = End_Mod;
//  218             EnddeviceApp_SendP2PMessage(ENDDEVICE_DATA_CLUSTERID,4,MsgBuf);
//  219          
//  220            
//  221            // Start sending the periodic message in a regular interval.
//  222            osal_start_timerEx( EnddeviceApp_TaskID,
//  223                               EnddeviceApp_SEND_PERIODIC_MSG_EVT,
//  224                           EnddeviceApp_SEND_PERIODIC_MSG_TIMEOUT ); 
//  225           }
//  226           else
//  227           {
//  228             LINKED = FALSE; //  no existing on the network
??EnddeviceApp_ProcessEvent_2:
        MOV     DPTR,#LINKED
        CLR     A
        MOVX    @DPTR,A
//  229           }
//  230        break;
//  231      default:
//  232        break;
//  233      }
//  234 
//  235       // Release the memory
//  236       osal_msg_deallocate( (uint8 *)MSGpkt );
??EnddeviceApp_ProcessEvent_3:
        ; Setup parameters for call to function osal_msg_deallocate
        MOV     R2,?V0 + 0
        MOV     R3,?V0 + 1
        LCALL   ??osal_msg_deallocate?relay
//  237       // Next - if one is available
//  238       MSGpkt = (afIncomingMSGPacket_t *)osal_msg_receive(EnddeviceApp_TaskID);
        ; Setup parameters for call to function osal_msg_receive
??EnddeviceApp_ProcessEvent_1:
        MOV     DPTR,#EnddeviceApp_TaskID
        MOVX    A,@DPTR
        MOV     R1,A
        LCALL   ??osal_msg_receive?relay
        MOV     ?V0 + 0,R2
        MOV     ?V0 + 1,R3
        MOV     A,?V0 + 0
        ORL     A,?V0 + 1
        JNZ     $+5
        LJMP    ??EnddeviceApp_ProcessEvent_4 & 0xFFFF
        MOV     DPL,?V0 + 0
        MOV     DPH,?V0 + 1
        MOVX    A,@DPTR
        ADD     A,#-0x1a
        JZ      ??EnddeviceApp_ProcessEvent_5
        ADD     A,#0x5a
        JZ      ??EnddeviceApp_ProcessEvent_6
        ADD     A,#-0x11
        JZ      ??EnddeviceApp_ProcessEvent_7
        SJMP    ??EnddeviceApp_ProcessEvent_3
??EnddeviceApp_ProcessEvent_6:
        ; Setup parameters for call to function EnddeviceApp_HandleKeys
        INC     DPTR
        INC     DPTR
        INC     DPTR
        MOVX    A,@DPTR
        MOV     R2,A
        MOV     DPL,?V0 + 0
        MOV     DPH,?V0 + 1
        INC     DPTR
        INC     DPTR
        MOVX    A,@DPTR
        MOV     R1,A
        LCALL   ??EnddeviceApp_HandleKeys?relay
        SJMP    ??EnddeviceApp_ProcessEvent_3
??EnddeviceApp_ProcessEvent_5:
        ; Setup parameters for call to function EnddeviceApp_HandleAfIncomingMessage
        MOV     R2,?V0 + 0
        MOV     R3,?V0 + 1
        LCALL   ??EnddeviceApp_HandleAfIncomingMessage?relay
        SJMP    ??EnddeviceApp_ProcessEvent_3
??EnddeviceApp_ProcessEvent_7:
        INC     DPTR
        MOVX    A,@DPTR
        MOV     DPTR,#EnddeviceApp_NwkState
        MOVX    @DPTR,A
        XRL     A,#0x6
        JNZ     ??EnddeviceApp_ProcessEvent_2
        MOV     DPTR,#_NIB + 33
        LCALL   ??Subroutine9_0 & 0xFFFF
??CrossCallReturnLabel_6:
        MOV     DPTR,#PANID
        MOV     A,R0
        MOVX    @DPTR,A
        INC     DPTR
        MOV     A,R1
        MOVX    @DPTR,A
        MOV     DPTR,#MyDeviceId
        MOVX    A,@DPTR
        MOV     DPTR,#debugnum
        MOVX    @DPTR,A
        MOV     DPTR,#LINKED
        MOV     A,#0x1
        MOVX    @DPTR,A
        MOV     DPTR,#MsgBuf
        LCALL   ??Subroutine12_0 & 0xFFFF
??CrossCallReturnLabel_29:
        MOV     A,#0xa
        MOVX    @DPTR,A
        MOV     DPTR,#MyDeviceId
        MOVX    A,@DPTR
        MOV     DPTR,#MsgBuf + 3
        MOVX    @DPTR,A
        ; Setup parameters for call to function EnddeviceApp_SendP2PMessage
        MOV     ?V0 + 2,#MsgBuf & 0xff
        MOV     ?V0 + 3,#(MsgBuf >> 8) & 0xff
        MOV     R0,#?V0 + 2
        LCALL   ?PUSH_XSTACK_I_TWO
        CFI CFA_XSP16 add(XSP16, 16)
        LCALL   ?Subroutine2 & 0xFFFF
??CrossCallReturnLabel_14:
        LCALL   ?DEALLOC_XSTACK8
        CFI CFA_XSP16 add(XSP16, 14)
        LCALL   ?Subroutine1 & 0xFFFF
??CrossCallReturnLabel_24:
        MOV     A,#0x1
        MOVX    @DPTR,A
        MOV     DPTR,#SetRM_Temperature
        LCALL   ?Subroutine3 & 0xFFFF
??CrossCallReturnLabel_0:
        LCALL   ?PUSH_XSTACK_I_TWO
        CFI CFA_XSP16 add(XSP16, 16)
        LCALL   ?Subroutine2 & 0xFFFF
??CrossCallReturnLabel_15:
        LCALL   ?DEALLOC_XSTACK8
        CFI CFA_XSP16 add(XSP16, 14)
        LCALL   ?Subroutine1 & 0xFFFF
??CrossCallReturnLabel_25:
        MOV     A,#0x2
        MOVX    @DPTR,A
        MOV     DPTR,#SetFL_Temperature
        LCALL   ?Subroutine3 & 0xFFFF
??CrossCallReturnLabel_1:
        LCALL   ?PUSH_XSTACK_I_TWO
        CFI CFA_XSP16 add(XSP16, 16)
        LCALL   ?Subroutine2 & 0xFFFF
??CrossCallReturnLabel_16:
        LCALL   ?DEALLOC_XSTACK8
        CFI CFA_XSP16 add(XSP16, 14)
        LCALL   ?Subroutine1 & 0xFFFF
??CrossCallReturnLabel_26:
        MOV     A,#-0x1
        MOVX    @DPTR,A
        MOV     DPTR,#POWER
        LCALL   ?Subroutine3 & 0xFFFF
??CrossCallReturnLabel_2:
        LCALL   ?PUSH_XSTACK_I_TWO
        CFI CFA_XSP16 add(XSP16, 16)
        LCALL   ?Subroutine2 & 0xFFFF
??CrossCallReturnLabel_17:
        LCALL   ?DEALLOC_XSTACK8
        CFI CFA_XSP16 add(XSP16, 14)
        LCALL   ?Subroutine1 & 0xFFFF
??CrossCallReturnLabel_27:
        MOV     A,#0xc
        MOVX    @DPTR,A
        MOV     DPTR,#End_Mod
        LCALL   ?Subroutine3 & 0xFFFF
??CrossCallReturnLabel_3:
        LCALL   ?PUSH_XSTACK_I_TWO
        CFI CFA_XSP16 add(XSP16, 16)
        LCALL   ?Subroutine2 & 0xFFFF
??CrossCallReturnLabel_18:
        LCALL   ?DEALLOC_XSTACK8
        CFI CFA_XSP16 add(XSP16, 14)
        ; Setup parameters for call to function osal_start_timerEx
        MOV     R4,#-0x78
        MOV     R5,#0x13
        MOV     R2,#0x1
        LCALL   ??Subroutine10_0 & 0xFFFF
//  239     }
??CrossCallReturnLabel_12:
        LJMP    ??EnddeviceApp_ProcessEvent_3 & 0xFFFF
//  240 
//  241     // return unprocessed events
//  242     return (events ^ SYS_EVENT_MSG);
??EnddeviceApp_ProcessEvent_4:
        MOV     A,R6
        MOV     R2,A
        MOV     A,R7
        XRL     A,#0x80
??EnddeviceApp_ProcessEvent_8:
        MOV     R3,A
        LJMP    ??EnddeviceApp_ProcessEvent_9 & 0xFFFF
//  243   }
//  244 
//  245   // Send a message out - This event is generated by a timer
//  246   //  (setup in EnddeviceApp_Init()).
//  247   if ( events & EnddeviceApp_SEND_PERIODIC_MSG_EVT )
??EnddeviceApp_ProcessEvent_0:
        MOV     A,R6
        MOV     C,0xE0 /* A   */.0
        JC      $+5
        LJMP    ??EnddeviceApp_ProcessEvent_10 & 0xFFFF
//  248   {
//  249     if(send_tick == 0)
        MOV     DPTR,#send_tick
        MOVX    A,@DPTR
        JNZ     ??EnddeviceApp_ProcessEvent_11
//  250     {
//  251         //get the rssi
//  252         MsgBuf[0] = 0x00;
        LCALL   ?Subroutine0 & 0xFFFF
//  253         MsgBuf[1] = MyDeviceId;
//  254         MsgBuf[2] = CMD_GET_RSSI;
//  255         EnddeviceApp_SendP2PMessage(ENDDEVICE_DATA_CLUSTERID,3,MsgBuf);   
//  256     }
??CrossCallReturnLabel_34:
        LCALL   ?PUSH_XSTACK_I_TWO
        CFI CFA_XSP16 add(XSP16, 16)
        MOV     R4,#0x3
        LCALL   ??Subroutine11_0 & 0xFFFF
??CrossCallReturnLabel_20:
        LCALL   ?DEALLOC_XSTACK8
        CFI CFA_XSP16 add(XSP16, 14)
//  257         
//  258     if(send_tick == 2)
??EnddeviceApp_ProcessEvent_11:
        MOV     DPTR,#send_tick
        MOVX    A,@DPTR
        XRL     A,#0x2
        JNZ     ??EnddeviceApp_ProcessEvent_12
//  259     { 
//  260        // send the room real temperature   
//  261       MsgBuf[0] = 2;
        MOV     DPTR,#MsgBuf
        MOV     A,#0x2
        LCALL   ??Subroutine12_0 & 0xFFFF
//  262       MsgBuf[1] = MyDeviceId;
//  263       MsgBuf[2] = CMD_ROOM_REAL_TEMPER;
??CrossCallReturnLabel_30:
        MOV     A,#0x3
        MOVX    @DPTR,A
//  264       MsgBuf[3] = (RM_Temperature >> 8) & 0x00ff; 
        MOV     DPTR,#RM_Temperature
        LCALL   ?Subroutine5 & 0xFFFF
??CrossCallReturnLabel_4:
        LCALL   ?SS_SHR
        MOV     A,?V0 + 0
        MOV     DPTR,#MsgBuf + 3
        MOVX    @DPTR,A
//  265       MsgBuf[4] = (RM_Temperature) & 0x00ff;
        MOV     DPTR,#RM_Temperature
        MOVX    A,@DPTR
        MOV     DPTR,#MsgBuf + 4
        LCALL   ??Subroutine13_0 & 0xFFFF
//  266       EnddeviceApp_SendP2PMessage(ENDDEVICE_DATA_CLUSTERID,5,MsgBuf);     
??CrossCallReturnLabel_36:
        LCALL   ?PUSH_XSTACK_I_TWO
        CFI CFA_XSP16 add(XSP16, 16)
        MOV     R4,#0x5
        LCALL   ??Subroutine11_0 & 0xFFFF
??CrossCallReturnLabel_21:
        LCALL   ?DEALLOC_XSTACK8
        CFI CFA_XSP16 add(XSP16, 14)
//  267     
//  268       // send the floor real temperature
//  269       MsgBuf[0] = 2;
        MOV     DPTR,#MsgBuf
        MOV     A,#0x2
        LCALL   ??Subroutine12_0 & 0xFFFF
//  270       MsgBuf[1] = MyDeviceId;
//  271       MsgBuf[2] = CMD_FLOOR_REAL_TEMPER;
??CrossCallReturnLabel_31:
        MOV     A,#0x4
        MOVX    @DPTR,A
//  272       MsgBuf[3] = (FL_Temperature >> 8) & 0x00ff; 
        MOV     DPTR,#FL_Temperature
        LCALL   ?Subroutine5 & 0xFFFF
??CrossCallReturnLabel_5:
        LCALL   ?SS_SHR
        MOV     A,?V0 + 0
        MOV     DPTR,#MsgBuf + 3
        MOVX    @DPTR,A
//  273       MsgBuf[4] = (FL_Temperature) & 0x00ff;
        MOV     DPTR,#FL_Temperature
        MOVX    A,@DPTR
        MOV     DPTR,#MsgBuf + 4
        LCALL   ??Subroutine13_0 & 0xFFFF
//  274       EnddeviceApp_SendP2PMessage(ENDDEVICE_DATA_CLUSTERID,5,MsgBuf); 
//  275     }
??CrossCallReturnLabel_37:
        LCALL   ?PUSH_XSTACK_I_TWO
        CFI CFA_XSP16 add(XSP16, 16)
        MOV     R4,#0x5
        LCALL   ??Subroutine11_0 & 0xFFFF
??CrossCallReturnLabel_22:
        LCALL   ?DEALLOC_XSTACK8
        CFI CFA_XSP16 add(XSP16, 14)
//  276     
//  277     
//  278     if(send_tick == 3)
??EnddeviceApp_ProcessEvent_12:
        MOV     DPTR,#send_tick
        MOVX    A,@DPTR
        XRL     A,#0x3
        JNZ     ??EnddeviceApp_ProcessEvent_13
//  279     {
//  280       //get the rssi
//  281         MsgBuf[0] = 0x00;
        LCALL   ?Subroutine0 & 0xFFFF
//  282         MsgBuf[1] = MyDeviceId;
//  283         MsgBuf[2] = CMD_GET_RSSI;
//  284         EnddeviceApp_SendP2PMessage(ENDDEVICE_DATA_CLUSTERID,3,MsgBuf);
//  285     }
??CrossCallReturnLabel_35:
        LCALL   ?PUSH_XSTACK_I_TWO
        CFI CFA_XSP16 add(XSP16, 16)
        MOV     R4,#0x3
        LCALL   ??Subroutine11_0 & 0xFFFF
??CrossCallReturnLabel_23:
        LCALL   ?DEALLOC_XSTACK8
        CFI CFA_XSP16 add(XSP16, 14)
//  286     
//  287       
//  288     if(send_tick == 4)
??EnddeviceApp_ProcessEvent_13:
        MOV     DPTR,#send_tick
        MOVX    A,@DPTR
        XRL     A,#0x4
        JNZ     ??EnddeviceApp_ProcessEvent_14
//  289     {
//  290       //control the temperature in the mode auotmatically
//  291       if(End_Mod)
        MOV     DPTR,#End_Mod
        MOVX    A,@DPTR
        JZ      ??EnddeviceApp_ProcessEvent_15
//  292       {
//  293         REL_CTL = ControlTemperature(SetRM_Temperature,SetFL_Temperature,\ 
//  294                                      RM_Temperature,FL_Temperature);
        ; Setup parameters for call to function ControlTemperature
        MOV     DPTR,#FL_Temperature
        LCALL   ?PUSH_XSTACK8_X_TWO
        CFI CFA_XSP16 add(XSP16, 16)
        MOV     DPTR,#RM_Temperature
        LCALL   ?PUSH_XSTACK8_X_TWO
        CFI CFA_XSP16 add(XSP16, 18)
        MOV     DPTR,#SetFL_Temperature
        MOVX    A,@DPTR
        MOV     R4,A
        MOV     R5,#0x0
        MOV     DPTR,#SetRM_Temperature
        MOVX    A,@DPTR
        MOV     R2,A
        MOV     R3,#0x0
        LCALL   ??ControlTemperature?relay
        MOV     A,#0x4
        LCALL   ?DEALLOC_XSTACK8
        CFI CFA_XSP16 add(XSP16, 14)
        MOV     A,R1
        MOV     C,0xE0 /* A   */.0
        MOV     0x90.2,C
//  295       }
//  296       // send relay state
//  297       MsgBuf[0] = 1;
??EnddeviceApp_ProcessEvent_15:
        LCALL   ?Subroutine1 & 0xFFFF
//  298       MsgBuf[1] = MyDeviceId;
//  299       MsgBuf[2] = CMD_RELAY_STATE;
??CrossCallReturnLabel_28:
        MOV     A,#0x5
        MOVX    @DPTR,A
//  300       MsgBuf[3] = REL_CTL;
        MOV     C,0x90.2
        CLR     A
        RLC     A
        INC     DPTR
        LCALL   ??Subroutine13_0 & 0xFFFF
//  301       EnddeviceApp_SendP2PMessage(ENDDEVICE_DATA_CLUSTERID,4,MsgBuf);
??CrossCallReturnLabel_38:
        LCALL   ?PUSH_XSTACK_I_TWO
        CFI CFA_XSP16 add(XSP16, 16)
        LCALL   ?Subroutine2 & 0xFFFF
??CrossCallReturnLabel_19:
        LCALL   ?DEALLOC_XSTACK8
        CFI CFA_XSP16 add(XSP16, 14)
//  302       send_tick = 0;
        MOV     DPTR,#send_tick
        CLR     A
        MOVX    @DPTR,A
//  303     }
//  304     
//  305     send_tick++;
??EnddeviceApp_ProcessEvent_14:
        MOVX    A,@DPTR
        INC     A
        MOVX    @DPTR,A
//  306    
//  307     // restart the timer
//  308     osal_start_timerEx(EnddeviceApp_TaskID,
//  309                      EnddeviceApp_SEND_PERIODIC_MSG_EVT ,
//  310                      1000 + (osal_rand() & 0x000f)); 
        ; Setup parameters for call to function osal_rand
        LCALL   ??osal_rand?relay
        ; Setup parameters for call to function osal_start_timerEx
        MOV     A,R2
        ANL     A,#0xf
        ADD     A,#-0x18
        MOV     R4,A
        CLR     A
        ADDC    A,#0x3
        MOV     R5,A
        MOV     R2,#0x1
        LCALL   ??Subroutine10_0 & 0xFFFF
//  311     
//  312     return (events ^ EnddeviceApp_SEND_PERIODIC_MSG_EVT);
??CrossCallReturnLabel_13:
        MOV     A,R6
        XRL     A,#0x1
??EnddeviceApp_ProcessEvent_16:
        MOV     R2,A
        MOV     A,R7
        LJMP    ??EnddeviceApp_ProcessEvent_8 & 0xFFFF
//  313   }
//  314   
//  315   // Scan the LCD
//  316   if ( events & EnddeviceApp_SCAN_LCD_MSG_EVT)
??EnddeviceApp_ProcessEvent_10:
        ANL     A,#0x2
        JZ      ??EnddeviceApp_ProcessEvent_17
//  317   {
//  318     if(sample_tick == 10) // sample the NTC ADC every 2 seconds
        MOV     DPTR,#sample_tick
        MOVX    A,@DPTR
        XRL     A,#0xa
        JNZ     ??EnddeviceApp_ProcessEvent_18
//  319     {
//  320  
//  321        uint16 RM_ADC_Result = TemperADCSampleAndAverage(10,0);
        ; Setup parameters for call to function TemperADCSampleAndAverage
        MOV     R2,#0x0
        MOV     R1,#0xa
        LCALL   ??TemperADCSampleAndAverage?relay
        MOV     ?V0 + 0,R2
        MOV     ?V0 + 1,R3
//  322        uint16 FL_ADC_Result = TemperADCSampleAndAverage(10,1);
        ; Setup parameters for call to function TemperADCSampleAndAverage
        MOV     R2,#0x1
        MOV     R1,#0xa
        LCALL   ??TemperADCSampleAndAverage?relay
        MOV     ?V0 + 2,R2
        MOV     ?V0 + 3,R3
//  323        
//  324        //  detect the NTC error
//  325         Error_Code = NTC_Error_Detect(RM_ADC_Result,FL_ADC_Result);
        ; Setup parameters for call to function NTC_Error_Detect
        MOV     R4,?V0 + 2
        MOV     R5,?V0 + 3
        MOV     R2,?V0 + 0
        MOV     R3,?V0 + 1
        LCALL   ??NTC_Error_Detect?relay
        MOV     DPTR,#Error_Code
        MOV     A,R2
        MOVX    @DPTR,A
        INC     DPTR
        MOV     A,R3
        MOVX    @DPTR,A
//  326         
//  327         HandleError(Error_Code);    
        ; Setup parameters for call to function HandleError
        LCALL   ??HandleError?relay
//  328         if(!Error_Code)// no error detected  
        MOV     DPTR,#Error_Code
        LCALL   ??Subroutine9_0 & 0xFFFF
??CrossCallReturnLabel_7:
        MOV     A,R0
        ORL     A,R1
        JNZ     ??EnddeviceApp_ProcessEvent_19
//  329         {
//  330            RM_Temperature = (uint16)EnddeviceApp_LookupTemp(RM_ADC_Result << 1);
        ; Setup parameters for call to function EnddeviceApp_LookupTemp
        MOV     A,?V0 + 0
        CLR     C
        RLC     A
        MOV     R2,A
        MOV     A,?V0 + 1
        RLC     A
        MOV     R3,A
        LCALL   ??EnddeviceApp_LookupTemp?relay
        MOV     DPTR,#RM_Temperature
        MOV     A,R2
        MOVX    @DPTR,A
        INC     DPTR
        MOV     A,R3
        MOVX    @DPTR,A
//  331            FL_Temperature = (uint16)EnddeviceApp_LookupTemp(FL_ADC_Result << 1);
        ; Setup parameters for call to function EnddeviceApp_LookupTemp
        MOV     A,?V0 + 2
        CLR     C
        RLC     A
        MOV     R2,A
        MOV     A,?V0 + 3
        RLC     A
        MOV     R3,A
        LCALL   ??EnddeviceApp_LookupTemp?relay
        MOV     DPTR,#FL_Temperature
        MOV     A,R2
        MOVX    @DPTR,A
        INC     DPTR
        MOV     A,R3
        MOVX    @DPTR,A
//  332         }
//  333        sample_tick = 0;  
??EnddeviceApp_ProcessEvent_19:
        MOV     DPTR,#sample_tick
        CLR     A
        MOVX    @DPTR,A
//  334     }   
//  335     sample_tick++;
??EnddeviceApp_ProcessEvent_18:
        MOVX    A,@DPTR
        INC     A
        MOVX    @DPTR,A
//  336     
//  337     
//  338     EnddeviceApp_HandleLCD();
        ; Setup parameters for call to function EnddeviceApp_HandleLCD
        LCALL   ??EnddeviceApp_HandleLCD?relay
//  339     
//  340     osal_start_timerEx(EnddeviceApp_TaskID,
//  341                      EnddeviceApp_SCAN_LCD_MSG_EVT ,
//  342                      
//  343                      EnddeviceApp_SCAN_LCD_DURATION); 
        ; Setup parameters for call to function osal_start_timerEx
        LCALL   ?Subroutine6 & 0xFFFF
//  344     
//  345     return (events ^ EnddeviceApp_SCAN_LCD_MSG_EVT);
??CrossCallReturnLabel_11:
        MOV     A,R6
        XRL     A,#0x2
        LJMP    ??EnddeviceApp_ProcessEvent_16 & 0xFFFF
//  346     
//  347   }
//  348   
//  349   //  reset the system
//  350   if ( events & EnddeviceApp_RESET_MSG_EVT)
??EnddeviceApp_ProcessEvent_17:
        MOV     A,R6
        ANL     A,#0x4
        JZ      ??EnddeviceApp_ProcessEvent_20
//  351   {
//  352     SystemReset();  
        CLR     0xa8.7
        CLR     0xa8.7
        MOV     0xc9,#-0x55
        MOV     0xc9,#0x5b
??EnddeviceApp_ProcessEvent_21:
        SJMP    ??EnddeviceApp_ProcessEvent_21
//  353   }
//  354   return 0;
??EnddeviceApp_ProcessEvent_20:
        MOV     R2,#0x0
        MOV     R3,#0x0
??EnddeviceApp_ProcessEvent_9:
        MOV     R7,#0x6
        LJMP    ?BANKED_LEAVE_XDATA
        CFI EndBlock cfiBlock17
        REQUIRE _A_P1
        REQUIRE _A_IEN0
        REQUIRE WDCTL
//  355 }

        RSEG BANKED_CODE:CODE:NOROOT(0)
?Subroutine5:
        CFI Block cfiCond18 Using cfiCommon0
        CFI NoFunction
        CFI Conditional ??CrossCallReturnLabel_4
        CFI R6 load(1, XDATA, add(CFA_XSP16, literal(-14)))
        CFI VB load(1, XDATA, add(CFA_XSP16, literal(-13)))
        CFI V0 load(1, XDATA, add(CFA_XSP16, literal(-12)))
        CFI V1 load(1, XDATA, add(CFA_XSP16, literal(-11)))
        CFI V2 load(1, XDATA, add(CFA_XSP16, literal(-10)))
        CFI V3 load(1, XDATA, add(CFA_XSP16, literal(-9)))
        CFI V4 load(1, XDATA, add(CFA_XSP16, literal(-8)))
        CFI V5 load(1, XDATA, add(CFA_XSP16, literal(-7)))
        CFI R7 load(1, XDATA, add(CFA_XSP16, literal(-6)))
        CFI ?RET_LOW load(1, XDATA, add(CFA_XSP16, literal(-5)))
        CFI ?RET_HIGH load(1, XDATA, add(CFA_XSP16, literal(-4)))
        CFI ?BRET_EXT load(1, XDATA, add(CFA_XSP16, literal(-3)))
        CFI DPL0 load(1, XDATA, add(CFA_XSP16, literal(-2)))
        CFI DPH0 load(1, XDATA, add(CFA_XSP16, literal(-1)))
        CFI CFA_SP SP+0
        CFI CFA_XSP16 add(XSP16, 14)
        CFI Block cfiCond19 Using cfiCommon0
        CFI (cfiCond19) NoFunction
        CFI (cfiCond19) Conditional ??CrossCallReturnLabel_5
        CFI (cfiCond19) R6 load(1, XDATA, add(CFA_XSP16, literal(-14)))
        CFI (cfiCond19) VB load(1, XDATA, add(CFA_XSP16, literal(-13)))
        CFI (cfiCond19) V0 load(1, XDATA, add(CFA_XSP16, literal(-12)))
        CFI (cfiCond19) V1 load(1, XDATA, add(CFA_XSP16, literal(-11)))
        CFI (cfiCond19) V2 load(1, XDATA, add(CFA_XSP16, literal(-10)))
        CFI (cfiCond19) V3 load(1, XDATA, add(CFA_XSP16, literal(-9)))
        CFI (cfiCond19) V4 load(1, XDATA, add(CFA_XSP16, literal(-8)))
        CFI (cfiCond19) V5 load(1, XDATA, add(CFA_XSP16, literal(-7)))
        CFI (cfiCond19) R7 load(1, XDATA, add(CFA_XSP16, literal(-6)))
        CFI (cfiCond19) ?RET_LOW load(1, XDATA, add(CFA_XSP16, literal(-5)))
        CFI (cfiCond19) ?RET_HIGH load(1, XDATA, add(CFA_XSP16, literal(-4)))
        CFI (cfiCond19) ?BRET_EXT load(1, XDATA, add(CFA_XSP16, literal(-3)))
        CFI (cfiCond19) DPL0 load(1, XDATA, add(CFA_XSP16, literal(-2)))
        CFI (cfiCond19) DPH0 load(1, XDATA, add(CFA_XSP16, literal(-1)))
        CFI (cfiCond19) CFA_SP SP+0
        CFI (cfiCond19) CFA_XSP16 add(XSP16, 14)
        CFI Block cfiPicker20 Using cfiCommon1
        CFI (cfiPicker20) NoFunction
        CFI (cfiPicker20) Picker
        MOVX    A,@DPTR
        MOV     ?V0 + 0,A
        INC     DPTR
        MOVX    A,@DPTR
        MOV     ?V0 + 1,A
        MOV     A,#0x8
        MOV     R0,#?V0 + 0
        RET
        CFI EndBlock cfiCond18
        CFI EndBlock cfiCond19
        CFI EndBlock cfiPicker20

        RSEG BANKED_CODE:CODE:NOROOT(0)
?Subroutine3:
        CFI Block cfiCond21 Using cfiCommon0
        CFI NoFunction
        CFI Conditional ??CrossCallReturnLabel_0
        CFI R6 load(1, XDATA, add(CFA_XSP16, literal(-14)))
        CFI VB load(1, XDATA, add(CFA_XSP16, literal(-13)))
        CFI V0 load(1, XDATA, add(CFA_XSP16, literal(-12)))
        CFI V1 load(1, XDATA, add(CFA_XSP16, literal(-11)))
        CFI V2 load(1, XDATA, add(CFA_XSP16, literal(-10)))
        CFI V3 load(1, XDATA, add(CFA_XSP16, literal(-9)))
        CFI V4 load(1, XDATA, add(CFA_XSP16, literal(-8)))
        CFI V5 load(1, XDATA, add(CFA_XSP16, literal(-7)))
        CFI R7 load(1, XDATA, add(CFA_XSP16, literal(-6)))
        CFI ?RET_LOW load(1, XDATA, add(CFA_XSP16, literal(-5)))
        CFI ?RET_HIGH load(1, XDATA, add(CFA_XSP16, literal(-4)))
        CFI ?BRET_EXT load(1, XDATA, add(CFA_XSP16, literal(-3)))
        CFI DPL0 load(1, XDATA, add(CFA_XSP16, literal(-2)))
        CFI DPH0 load(1, XDATA, add(CFA_XSP16, literal(-1)))
        CFI CFA_SP SP+0
        CFI CFA_XSP16 add(XSP16, 14)
        CFI Block cfiCond22 Using cfiCommon0
        CFI (cfiCond22) NoFunction
        CFI (cfiCond22) Conditional ??CrossCallReturnLabel_1
        CFI (cfiCond22) R6 load(1, XDATA, add(CFA_XSP16, literal(-14)))
        CFI (cfiCond22) VB load(1, XDATA, add(CFA_XSP16, literal(-13)))
        CFI (cfiCond22) V0 load(1, XDATA, add(CFA_XSP16, literal(-12)))
        CFI (cfiCond22) V1 load(1, XDATA, add(CFA_XSP16, literal(-11)))
        CFI (cfiCond22) V2 load(1, XDATA, add(CFA_XSP16, literal(-10)))
        CFI (cfiCond22) V3 load(1, XDATA, add(CFA_XSP16, literal(-9)))
        CFI (cfiCond22) V4 load(1, XDATA, add(CFA_XSP16, literal(-8)))
        CFI (cfiCond22) V5 load(1, XDATA, add(CFA_XSP16, literal(-7)))
        CFI (cfiCond22) R7 load(1, XDATA, add(CFA_XSP16, literal(-6)))
        CFI (cfiCond22) ?RET_LOW load(1, XDATA, add(CFA_XSP16, literal(-5)))
        CFI (cfiCond22) ?RET_HIGH load(1, XDATA, add(CFA_XSP16, literal(-4)))
        CFI (cfiCond22) ?BRET_EXT load(1, XDATA, add(CFA_XSP16, literal(-3)))
        CFI (cfiCond22) DPL0 load(1, XDATA, add(CFA_XSP16, literal(-2)))
        CFI (cfiCond22) DPH0 load(1, XDATA, add(CFA_XSP16, literal(-1)))
        CFI (cfiCond22) CFA_SP SP+0
        CFI (cfiCond22) CFA_XSP16 add(XSP16, 14)
        CFI Block cfiCond23 Using cfiCommon0
        CFI (cfiCond23) NoFunction
        CFI (cfiCond23) Conditional ??CrossCallReturnLabel_2
        CFI (cfiCond23) R6 load(1, XDATA, add(CFA_XSP16, literal(-14)))
        CFI (cfiCond23) VB load(1, XDATA, add(CFA_XSP16, literal(-13)))
        CFI (cfiCond23) V0 load(1, XDATA, add(CFA_XSP16, literal(-12)))
        CFI (cfiCond23) V1 load(1, XDATA, add(CFA_XSP16, literal(-11)))
        CFI (cfiCond23) V2 load(1, XDATA, add(CFA_XSP16, literal(-10)))
        CFI (cfiCond23) V3 load(1, XDATA, add(CFA_XSP16, literal(-9)))
        CFI (cfiCond23) V4 load(1, XDATA, add(CFA_XSP16, literal(-8)))
        CFI (cfiCond23) V5 load(1, XDATA, add(CFA_XSP16, literal(-7)))
        CFI (cfiCond23) R7 load(1, XDATA, add(CFA_XSP16, literal(-6)))
        CFI (cfiCond23) ?RET_LOW load(1, XDATA, add(CFA_XSP16, literal(-5)))
        CFI (cfiCond23) ?RET_HIGH load(1, XDATA, add(CFA_XSP16, literal(-4)))
        CFI (cfiCond23) ?BRET_EXT load(1, XDATA, add(CFA_XSP16, literal(-3)))
        CFI (cfiCond23) DPL0 load(1, XDATA, add(CFA_XSP16, literal(-2)))
        CFI (cfiCond23) DPH0 load(1, XDATA, add(CFA_XSP16, literal(-1)))
        CFI (cfiCond23) CFA_SP SP+0
        CFI (cfiCond23) CFA_XSP16 add(XSP16, 14)
        CFI Block cfiCond24 Using cfiCommon0
        CFI (cfiCond24) NoFunction
        CFI (cfiCond24) Conditional ??CrossCallReturnLabel_3
        CFI (cfiCond24) R6 load(1, XDATA, add(CFA_XSP16, literal(-14)))
        CFI (cfiCond24) VB load(1, XDATA, add(CFA_XSP16, literal(-13)))
        CFI (cfiCond24) V0 load(1, XDATA, add(CFA_XSP16, literal(-12)))
        CFI (cfiCond24) V1 load(1, XDATA, add(CFA_XSP16, literal(-11)))
        CFI (cfiCond24) V2 load(1, XDATA, add(CFA_XSP16, literal(-10)))
        CFI (cfiCond24) V3 load(1, XDATA, add(CFA_XSP16, literal(-9)))
        CFI (cfiCond24) V4 load(1, XDATA, add(CFA_XSP16, literal(-8)))
        CFI (cfiCond24) V5 load(1, XDATA, add(CFA_XSP16, literal(-7)))
        CFI (cfiCond24) R7 load(1, XDATA, add(CFA_XSP16, literal(-6)))
        CFI (cfiCond24) ?RET_LOW load(1, XDATA, add(CFA_XSP16, literal(-5)))
        CFI (cfiCond24) ?RET_HIGH load(1, XDATA, add(CFA_XSP16, literal(-4)))
        CFI (cfiCond24) ?BRET_EXT load(1, XDATA, add(CFA_XSP16, literal(-3)))
        CFI (cfiCond24) DPL0 load(1, XDATA, add(CFA_XSP16, literal(-2)))
        CFI (cfiCond24) DPH0 load(1, XDATA, add(CFA_XSP16, literal(-1)))
        CFI (cfiCond24) CFA_SP SP+0
        CFI (cfiCond24) CFA_XSP16 add(XSP16, 14)
        CFI Block cfiPicker25 Using cfiCommon1
        CFI (cfiPicker25) NoFunction
        CFI (cfiPicker25) Picker
        MOVX    A,@DPTR
        MOV     DPTR,#MsgBuf + 3
        MOVX    @DPTR,A
        ; Setup parameters for call to function EnddeviceApp_SendP2PMessage
        ; Setup parameters for call to function EnddeviceApp_SendP2PMessage
        ; Setup parameters for call to function EnddeviceApp_SendP2PMessage
        ; Setup parameters for call to function EnddeviceApp_SendP2PMessage
        MOV     R0,#?V0 + 2
        RET
        CFI EndBlock cfiCond21
        CFI EndBlock cfiCond22
        CFI EndBlock cfiCond23
        CFI EndBlock cfiCond24
        CFI EndBlock cfiPicker25

        RSEG BANKED_CODE:CODE:NOROOT(0)
?Subroutine2:
        CFI Block cfiCond26 Using cfiCommon0
        CFI NoFunction
        CFI Conditional ??CrossCallReturnLabel_14
        CFI R6 load(1, XDATA, add(CFA_XSP16, literal(-14)))
        CFI VB load(1, XDATA, add(CFA_XSP16, literal(-13)))
        CFI V0 load(1, XDATA, add(CFA_XSP16, literal(-12)))
        CFI V1 load(1, XDATA, add(CFA_XSP16, literal(-11)))
        CFI V2 load(1, XDATA, add(CFA_XSP16, literal(-10)))
        CFI V3 load(1, XDATA, add(CFA_XSP16, literal(-9)))
        CFI V4 load(1, XDATA, add(CFA_XSP16, literal(-8)))
        CFI V5 load(1, XDATA, add(CFA_XSP16, literal(-7)))
        CFI R7 load(1, XDATA, add(CFA_XSP16, literal(-6)))
        CFI ?RET_LOW load(1, XDATA, add(CFA_XSP16, literal(-5)))
        CFI ?RET_HIGH load(1, XDATA, add(CFA_XSP16, literal(-4)))
        CFI ?BRET_EXT load(1, XDATA, add(CFA_XSP16, literal(-3)))
        CFI DPL0 load(1, XDATA, add(CFA_XSP16, literal(-2)))
        CFI DPH0 load(1, XDATA, add(CFA_XSP16, literal(-1)))
        CFI CFA_SP SP+0
        CFI CFA_XSP16 add(XSP16, 16)
        CFI Block cfiCond27 Using cfiCommon0
        CFI (cfiCond27) NoFunction
        CFI (cfiCond27) Conditional ??CrossCallReturnLabel_15
        CFI (cfiCond27) R6 load(1, XDATA, add(CFA_XSP16, literal(-14)))
        CFI (cfiCond27) VB load(1, XDATA, add(CFA_XSP16, literal(-13)))
        CFI (cfiCond27) V0 load(1, XDATA, add(CFA_XSP16, literal(-12)))
        CFI (cfiCond27) V1 load(1, XDATA, add(CFA_XSP16, literal(-11)))
        CFI (cfiCond27) V2 load(1, XDATA, add(CFA_XSP16, literal(-10)))
        CFI (cfiCond27) V3 load(1, XDATA, add(CFA_XSP16, literal(-9)))
        CFI (cfiCond27) V4 load(1, XDATA, add(CFA_XSP16, literal(-8)))
        CFI (cfiCond27) V5 load(1, XDATA, add(CFA_XSP16, literal(-7)))
        CFI (cfiCond27) R7 load(1, XDATA, add(CFA_XSP16, literal(-6)))
        CFI (cfiCond27) ?RET_LOW load(1, XDATA, add(CFA_XSP16, literal(-5)))
        CFI (cfiCond27) ?RET_HIGH load(1, XDATA, add(CFA_XSP16, literal(-4)))
        CFI (cfiCond27) ?BRET_EXT load(1, XDATA, add(CFA_XSP16, literal(-3)))
        CFI (cfiCond27) DPL0 load(1, XDATA, add(CFA_XSP16, literal(-2)))
        CFI (cfiCond27) DPH0 load(1, XDATA, add(CFA_XSP16, literal(-1)))
        CFI (cfiCond27) CFA_SP SP+0
        CFI (cfiCond27) CFA_XSP16 add(XSP16, 16)
        CFI Block cfiCond28 Using cfiCommon0
        CFI (cfiCond28) NoFunction
        CFI (cfiCond28) Conditional ??CrossCallReturnLabel_16
        CFI (cfiCond28) R6 load(1, XDATA, add(CFA_XSP16, literal(-14)))
        CFI (cfiCond28) VB load(1, XDATA, add(CFA_XSP16, literal(-13)))
        CFI (cfiCond28) V0 load(1, XDATA, add(CFA_XSP16, literal(-12)))
        CFI (cfiCond28) V1 load(1, XDATA, add(CFA_XSP16, literal(-11)))
        CFI (cfiCond28) V2 load(1, XDATA, add(CFA_XSP16, literal(-10)))
        CFI (cfiCond28) V3 load(1, XDATA, add(CFA_XSP16, literal(-9)))
        CFI (cfiCond28) V4 load(1, XDATA, add(CFA_XSP16, literal(-8)))
        CFI (cfiCond28) V5 load(1, XDATA, add(CFA_XSP16, literal(-7)))
        CFI (cfiCond28) R7 load(1, XDATA, add(CFA_XSP16, literal(-6)))
        CFI (cfiCond28) ?RET_LOW load(1, XDATA, add(CFA_XSP16, literal(-5)))
        CFI (cfiCond28) ?RET_HIGH load(1, XDATA, add(CFA_XSP16, literal(-4)))
        CFI (cfiCond28) ?BRET_EXT load(1, XDATA, add(CFA_XSP16, literal(-3)))
        CFI (cfiCond28) DPL0 load(1, XDATA, add(CFA_XSP16, literal(-2)))
        CFI (cfiCond28) DPH0 load(1, XDATA, add(CFA_XSP16, literal(-1)))
        CFI (cfiCond28) CFA_SP SP+0
        CFI (cfiCond28) CFA_XSP16 add(XSP16, 16)
        CFI Block cfiCond29 Using cfiCommon0
        CFI (cfiCond29) NoFunction
        CFI (cfiCond29) Conditional ??CrossCallReturnLabel_17
        CFI (cfiCond29) R6 load(1, XDATA, add(CFA_XSP16, literal(-14)))
        CFI (cfiCond29) VB load(1, XDATA, add(CFA_XSP16, literal(-13)))
        CFI (cfiCond29) V0 load(1, XDATA, add(CFA_XSP16, literal(-12)))
        CFI (cfiCond29) V1 load(1, XDATA, add(CFA_XSP16, literal(-11)))
        CFI (cfiCond29) V2 load(1, XDATA, add(CFA_XSP16, literal(-10)))
        CFI (cfiCond29) V3 load(1, XDATA, add(CFA_XSP16, literal(-9)))
        CFI (cfiCond29) V4 load(1, XDATA, add(CFA_XSP16, literal(-8)))
        CFI (cfiCond29) V5 load(1, XDATA, add(CFA_XSP16, literal(-7)))
        CFI (cfiCond29) R7 load(1, XDATA, add(CFA_XSP16, literal(-6)))
        CFI (cfiCond29) ?RET_LOW load(1, XDATA, add(CFA_XSP16, literal(-5)))
        CFI (cfiCond29) ?RET_HIGH load(1, XDATA, add(CFA_XSP16, literal(-4)))
        CFI (cfiCond29) ?BRET_EXT load(1, XDATA, add(CFA_XSP16, literal(-3)))
        CFI (cfiCond29) DPL0 load(1, XDATA, add(CFA_XSP16, literal(-2)))
        CFI (cfiCond29) DPH0 load(1, XDATA, add(CFA_XSP16, literal(-1)))
        CFI (cfiCond29) CFA_SP SP+0
        CFI (cfiCond29) CFA_XSP16 add(XSP16, 16)
        CFI Block cfiCond30 Using cfiCommon0
        CFI (cfiCond30) NoFunction
        CFI (cfiCond30) Conditional ??CrossCallReturnLabel_18
        CFI (cfiCond30) R6 load(1, XDATA, add(CFA_XSP16, literal(-14)))
        CFI (cfiCond30) VB load(1, XDATA, add(CFA_XSP16, literal(-13)))
        CFI (cfiCond30) V0 load(1, XDATA, add(CFA_XSP16, literal(-12)))
        CFI (cfiCond30) V1 load(1, XDATA, add(CFA_XSP16, literal(-11)))
        CFI (cfiCond30) V2 load(1, XDATA, add(CFA_XSP16, literal(-10)))
        CFI (cfiCond30) V3 load(1, XDATA, add(CFA_XSP16, literal(-9)))
        CFI (cfiCond30) V4 load(1, XDATA, add(CFA_XSP16, literal(-8)))
        CFI (cfiCond30) V5 load(1, XDATA, add(CFA_XSP16, literal(-7)))
        CFI (cfiCond30) R7 load(1, XDATA, add(CFA_XSP16, literal(-6)))
        CFI (cfiCond30) ?RET_LOW load(1, XDATA, add(CFA_XSP16, literal(-5)))
        CFI (cfiCond30) ?RET_HIGH load(1, XDATA, add(CFA_XSP16, literal(-4)))
        CFI (cfiCond30) ?BRET_EXT load(1, XDATA, add(CFA_XSP16, literal(-3)))
        CFI (cfiCond30) DPL0 load(1, XDATA, add(CFA_XSP16, literal(-2)))
        CFI (cfiCond30) DPH0 load(1, XDATA, add(CFA_XSP16, literal(-1)))
        CFI (cfiCond30) CFA_SP SP+0
        CFI (cfiCond30) CFA_XSP16 add(XSP16, 16)
        CFI Block cfiCond31 Using cfiCommon0
        CFI (cfiCond31) NoFunction
        CFI (cfiCond31) Conditional ??CrossCallReturnLabel_19
        CFI (cfiCond31) R6 load(1, XDATA, add(CFA_XSP16, literal(-14)))
        CFI (cfiCond31) VB load(1, XDATA, add(CFA_XSP16, literal(-13)))
        CFI (cfiCond31) V0 load(1, XDATA, add(CFA_XSP16, literal(-12)))
        CFI (cfiCond31) V1 load(1, XDATA, add(CFA_XSP16, literal(-11)))
        CFI (cfiCond31) V2 load(1, XDATA, add(CFA_XSP16, literal(-10)))
        CFI (cfiCond31) V3 load(1, XDATA, add(CFA_XSP16, literal(-9)))
        CFI (cfiCond31) V4 load(1, XDATA, add(CFA_XSP16, literal(-8)))
        CFI (cfiCond31) V5 load(1, XDATA, add(CFA_XSP16, literal(-7)))
        CFI (cfiCond31) R7 load(1, XDATA, add(CFA_XSP16, literal(-6)))
        CFI (cfiCond31) ?RET_LOW load(1, XDATA, add(CFA_XSP16, literal(-5)))
        CFI (cfiCond31) ?RET_HIGH load(1, XDATA, add(CFA_XSP16, literal(-4)))
        CFI (cfiCond31) ?BRET_EXT load(1, XDATA, add(CFA_XSP16, literal(-3)))
        CFI (cfiCond31) DPL0 load(1, XDATA, add(CFA_XSP16, literal(-2)))
        CFI (cfiCond31) DPH0 load(1, XDATA, add(CFA_XSP16, literal(-1)))
        CFI (cfiCond31) CFA_SP SP+0
        CFI (cfiCond31) CFA_XSP16 add(XSP16, 16)
        CFI Block cfiPicker32 Using cfiCommon1
        CFI (cfiPicker32) NoFunction
        CFI (cfiPicker32) Picker
        MOV     R4,#0x4
        CFI EndBlock cfiCond26
        CFI EndBlock cfiCond27
        CFI EndBlock cfiCond28
        CFI EndBlock cfiCond29
        CFI EndBlock cfiCond30
        CFI EndBlock cfiCond31
        CFI EndBlock cfiPicker32
        REQUIRE ??Subroutine11_0
        ; // Fall through to label ??Subroutine11_0

        RSEG BANKED_CODE:CODE:NOROOT(0)
??Subroutine11_0:
        CFI Block cfiCond33 Using cfiCommon0
        CFI NoFunction
        CFI Conditional ??CrossCallReturnLabel_20
        CFI R6 load(1, XDATA, add(CFA_XSP16, literal(-14)))
        CFI VB load(1, XDATA, add(CFA_XSP16, literal(-13)))
        CFI V0 load(1, XDATA, add(CFA_XSP16, literal(-12)))
        CFI V1 load(1, XDATA, add(CFA_XSP16, literal(-11)))
        CFI V2 load(1, XDATA, add(CFA_XSP16, literal(-10)))
        CFI V3 load(1, XDATA, add(CFA_XSP16, literal(-9)))
        CFI V4 load(1, XDATA, add(CFA_XSP16, literal(-8)))
        CFI V5 load(1, XDATA, add(CFA_XSP16, literal(-7)))
        CFI R7 load(1, XDATA, add(CFA_XSP16, literal(-6)))
        CFI ?RET_LOW load(1, XDATA, add(CFA_XSP16, literal(-5)))
        CFI ?RET_HIGH load(1, XDATA, add(CFA_XSP16, literal(-4)))
        CFI ?BRET_EXT load(1, XDATA, add(CFA_XSP16, literal(-3)))
        CFI DPL0 load(1, XDATA, add(CFA_XSP16, literal(-2)))
        CFI DPH0 load(1, XDATA, add(CFA_XSP16, literal(-1)))
        CFI CFA_SP SP+0
        CFI CFA_XSP16 add(XSP16, 16)
        CFI Block cfiCond34 Using cfiCommon0
        CFI (cfiCond34) NoFunction
        CFI (cfiCond34) Conditional ??CrossCallReturnLabel_21
        CFI (cfiCond34) R6 load(1, XDATA, add(CFA_XSP16, literal(-14)))
        CFI (cfiCond34) VB load(1, XDATA, add(CFA_XSP16, literal(-13)))
        CFI (cfiCond34) V0 load(1, XDATA, add(CFA_XSP16, literal(-12)))
        CFI (cfiCond34) V1 load(1, XDATA, add(CFA_XSP16, literal(-11)))
        CFI (cfiCond34) V2 load(1, XDATA, add(CFA_XSP16, literal(-10)))
        CFI (cfiCond34) V3 load(1, XDATA, add(CFA_XSP16, literal(-9)))
        CFI (cfiCond34) V4 load(1, XDATA, add(CFA_XSP16, literal(-8)))
        CFI (cfiCond34) V5 load(1, XDATA, add(CFA_XSP16, literal(-7)))
        CFI (cfiCond34) R7 load(1, XDATA, add(CFA_XSP16, literal(-6)))
        CFI (cfiCond34) ?RET_LOW load(1, XDATA, add(CFA_XSP16, literal(-5)))
        CFI (cfiCond34) ?RET_HIGH load(1, XDATA, add(CFA_XSP16, literal(-4)))
        CFI (cfiCond34) ?BRET_EXT load(1, XDATA, add(CFA_XSP16, literal(-3)))
        CFI (cfiCond34) DPL0 load(1, XDATA, add(CFA_XSP16, literal(-2)))
        CFI (cfiCond34) DPH0 load(1, XDATA, add(CFA_XSP16, literal(-1)))
        CFI (cfiCond34) CFA_SP SP+0
        CFI (cfiCond34) CFA_XSP16 add(XSP16, 16)
        CFI Block cfiCond35 Using cfiCommon0
        CFI (cfiCond35) NoFunction
        CFI (cfiCond35) Conditional ??CrossCallReturnLabel_22
        CFI (cfiCond35) R6 load(1, XDATA, add(CFA_XSP16, literal(-14)))
        CFI (cfiCond35) VB load(1, XDATA, add(CFA_XSP16, literal(-13)))
        CFI (cfiCond35) V0 load(1, XDATA, add(CFA_XSP16, literal(-12)))
        CFI (cfiCond35) V1 load(1, XDATA, add(CFA_XSP16, literal(-11)))
        CFI (cfiCond35) V2 load(1, XDATA, add(CFA_XSP16, literal(-10)))
        CFI (cfiCond35) V3 load(1, XDATA, add(CFA_XSP16, literal(-9)))
        CFI (cfiCond35) V4 load(1, XDATA, add(CFA_XSP16, literal(-8)))
        CFI (cfiCond35) V5 load(1, XDATA, add(CFA_XSP16, literal(-7)))
        CFI (cfiCond35) R7 load(1, XDATA, add(CFA_XSP16, literal(-6)))
        CFI (cfiCond35) ?RET_LOW load(1, XDATA, add(CFA_XSP16, literal(-5)))
        CFI (cfiCond35) ?RET_HIGH load(1, XDATA, add(CFA_XSP16, literal(-4)))
        CFI (cfiCond35) ?BRET_EXT load(1, XDATA, add(CFA_XSP16, literal(-3)))
        CFI (cfiCond35) DPL0 load(1, XDATA, add(CFA_XSP16, literal(-2)))
        CFI (cfiCond35) DPH0 load(1, XDATA, add(CFA_XSP16, literal(-1)))
        CFI (cfiCond35) CFA_SP SP+0
        CFI (cfiCond35) CFA_XSP16 add(XSP16, 16)
        CFI Block cfiCond36 Using cfiCommon0
        CFI (cfiCond36) NoFunction
        CFI (cfiCond36) Conditional ??CrossCallReturnLabel_23
        CFI (cfiCond36) R6 load(1, XDATA, add(CFA_XSP16, literal(-14)))
        CFI (cfiCond36) VB load(1, XDATA, add(CFA_XSP16, literal(-13)))
        CFI (cfiCond36) V0 load(1, XDATA, add(CFA_XSP16, literal(-12)))
        CFI (cfiCond36) V1 load(1, XDATA, add(CFA_XSP16, literal(-11)))
        CFI (cfiCond36) V2 load(1, XDATA, add(CFA_XSP16, literal(-10)))
        CFI (cfiCond36) V3 load(1, XDATA, add(CFA_XSP16, literal(-9)))
        CFI (cfiCond36) V4 load(1, XDATA, add(CFA_XSP16, literal(-8)))
        CFI (cfiCond36) V5 load(1, XDATA, add(CFA_XSP16, literal(-7)))
        CFI (cfiCond36) R7 load(1, XDATA, add(CFA_XSP16, literal(-6)))
        CFI (cfiCond36) ?RET_LOW load(1, XDATA, add(CFA_XSP16, literal(-5)))
        CFI (cfiCond36) ?RET_HIGH load(1, XDATA, add(CFA_XSP16, literal(-4)))
        CFI (cfiCond36) ?BRET_EXT load(1, XDATA, add(CFA_XSP16, literal(-3)))
        CFI (cfiCond36) DPL0 load(1, XDATA, add(CFA_XSP16, literal(-2)))
        CFI (cfiCond36) DPH0 load(1, XDATA, add(CFA_XSP16, literal(-1)))
        CFI (cfiCond36) CFA_SP SP+0
        CFI (cfiCond36) CFA_XSP16 add(XSP16, 16)
        CFI Block cfiCond37 Using cfiCommon0
        CFI (cfiCond37) NoFunction
        CFI (cfiCond37) Conditional ??CrossCallReturnLabel_14
        CFI (cfiCond37) R6 load(1, XDATA, add(CFA_XSP16, literal(-14)))
        CFI (cfiCond37) VB load(1, XDATA, add(CFA_XSP16, literal(-13)))
        CFI (cfiCond37) V0 load(1, XDATA, add(CFA_XSP16, literal(-12)))
        CFI (cfiCond37) V1 load(1, XDATA, add(CFA_XSP16, literal(-11)))
        CFI (cfiCond37) V2 load(1, XDATA, add(CFA_XSP16, literal(-10)))
        CFI (cfiCond37) V3 load(1, XDATA, add(CFA_XSP16, literal(-9)))
        CFI (cfiCond37) V4 load(1, XDATA, add(CFA_XSP16, literal(-8)))
        CFI (cfiCond37) V5 load(1, XDATA, add(CFA_XSP16, literal(-7)))
        CFI (cfiCond37) R7 load(1, XDATA, add(CFA_XSP16, literal(-6)))
        CFI (cfiCond37) ?RET_LOW load(1, XDATA, add(CFA_XSP16, literal(-5)))
        CFI (cfiCond37) ?RET_HIGH load(1, XDATA, add(CFA_XSP16, literal(-4)))
        CFI (cfiCond37) ?BRET_EXT load(1, XDATA, add(CFA_XSP16, literal(-3)))
        CFI (cfiCond37) DPL0 load(1, XDATA, add(CFA_XSP16, literal(-2)))
        CFI (cfiCond37) DPH0 load(1, XDATA, add(CFA_XSP16, literal(-1)))
        CFI (cfiCond37) CFA_SP SP+0
        CFI (cfiCond37) CFA_XSP16 add(XSP16, 16)
        CFI Block cfiCond38 Using cfiCommon0
        CFI (cfiCond38) NoFunction
        CFI (cfiCond38) Conditional ??CrossCallReturnLabel_15
        CFI (cfiCond38) R6 load(1, XDATA, add(CFA_XSP16, literal(-14)))
        CFI (cfiCond38) VB load(1, XDATA, add(CFA_XSP16, literal(-13)))
        CFI (cfiCond38) V0 load(1, XDATA, add(CFA_XSP16, literal(-12)))
        CFI (cfiCond38) V1 load(1, XDATA, add(CFA_XSP16, literal(-11)))
        CFI (cfiCond38) V2 load(1, XDATA, add(CFA_XSP16, literal(-10)))
        CFI (cfiCond38) V3 load(1, XDATA, add(CFA_XSP16, literal(-9)))
        CFI (cfiCond38) V4 load(1, XDATA, add(CFA_XSP16, literal(-8)))
        CFI (cfiCond38) V5 load(1, XDATA, add(CFA_XSP16, literal(-7)))
        CFI (cfiCond38) R7 load(1, XDATA, add(CFA_XSP16, literal(-6)))
        CFI (cfiCond38) ?RET_LOW load(1, XDATA, add(CFA_XSP16, literal(-5)))
        CFI (cfiCond38) ?RET_HIGH load(1, XDATA, add(CFA_XSP16, literal(-4)))
        CFI (cfiCond38) ?BRET_EXT load(1, XDATA, add(CFA_XSP16, literal(-3)))
        CFI (cfiCond38) DPL0 load(1, XDATA, add(CFA_XSP16, literal(-2)))
        CFI (cfiCond38) DPH0 load(1, XDATA, add(CFA_XSP16, literal(-1)))
        CFI (cfiCond38) CFA_SP SP+0
        CFI (cfiCond38) CFA_XSP16 add(XSP16, 16)
        CFI Block cfiCond39 Using cfiCommon0
        CFI (cfiCond39) NoFunction
        CFI (cfiCond39) Conditional ??CrossCallReturnLabel_16
        CFI (cfiCond39) R6 load(1, XDATA, add(CFA_XSP16, literal(-14)))
        CFI (cfiCond39) VB load(1, XDATA, add(CFA_XSP16, literal(-13)))
        CFI (cfiCond39) V0 load(1, XDATA, add(CFA_XSP16, literal(-12)))
        CFI (cfiCond39) V1 load(1, XDATA, add(CFA_XSP16, literal(-11)))
        CFI (cfiCond39) V2 load(1, XDATA, add(CFA_XSP16, literal(-10)))
        CFI (cfiCond39) V3 load(1, XDATA, add(CFA_XSP16, literal(-9)))
        CFI (cfiCond39) V4 load(1, XDATA, add(CFA_XSP16, literal(-8)))
        CFI (cfiCond39) V5 load(1, XDATA, add(CFA_XSP16, literal(-7)))
        CFI (cfiCond39) R7 load(1, XDATA, add(CFA_XSP16, literal(-6)))
        CFI (cfiCond39) ?RET_LOW load(1, XDATA, add(CFA_XSP16, literal(-5)))
        CFI (cfiCond39) ?RET_HIGH load(1, XDATA, add(CFA_XSP16, literal(-4)))
        CFI (cfiCond39) ?BRET_EXT load(1, XDATA, add(CFA_XSP16, literal(-3)))
        CFI (cfiCond39) DPL0 load(1, XDATA, add(CFA_XSP16, literal(-2)))
        CFI (cfiCond39) DPH0 load(1, XDATA, add(CFA_XSP16, literal(-1)))
        CFI (cfiCond39) CFA_SP SP+0
        CFI (cfiCond39) CFA_XSP16 add(XSP16, 16)
        CFI Block cfiCond40 Using cfiCommon0
        CFI (cfiCond40) NoFunction
        CFI (cfiCond40) Conditional ??CrossCallReturnLabel_17
        CFI (cfiCond40) R6 load(1, XDATA, add(CFA_XSP16, literal(-14)))
        CFI (cfiCond40) VB load(1, XDATA, add(CFA_XSP16, literal(-13)))
        CFI (cfiCond40) V0 load(1, XDATA, add(CFA_XSP16, literal(-12)))
        CFI (cfiCond40) V1 load(1, XDATA, add(CFA_XSP16, literal(-11)))
        CFI (cfiCond40) V2 load(1, XDATA, add(CFA_XSP16, literal(-10)))
        CFI (cfiCond40) V3 load(1, XDATA, add(CFA_XSP16, literal(-9)))
        CFI (cfiCond40) V4 load(1, XDATA, add(CFA_XSP16, literal(-8)))
        CFI (cfiCond40) V5 load(1, XDATA, add(CFA_XSP16, literal(-7)))
        CFI (cfiCond40) R7 load(1, XDATA, add(CFA_XSP16, literal(-6)))
        CFI (cfiCond40) ?RET_LOW load(1, XDATA, add(CFA_XSP16, literal(-5)))
        CFI (cfiCond40) ?RET_HIGH load(1, XDATA, add(CFA_XSP16, literal(-4)))
        CFI (cfiCond40) ?BRET_EXT load(1, XDATA, add(CFA_XSP16, literal(-3)))
        CFI (cfiCond40) DPL0 load(1, XDATA, add(CFA_XSP16, literal(-2)))
        CFI (cfiCond40) DPH0 load(1, XDATA, add(CFA_XSP16, literal(-1)))
        CFI (cfiCond40) CFA_SP SP+0
        CFI (cfiCond40) CFA_XSP16 add(XSP16, 16)
        CFI Block cfiCond41 Using cfiCommon0
        CFI (cfiCond41) NoFunction
        CFI (cfiCond41) Conditional ??CrossCallReturnLabel_18
        CFI (cfiCond41) R6 load(1, XDATA, add(CFA_XSP16, literal(-14)))
        CFI (cfiCond41) VB load(1, XDATA, add(CFA_XSP16, literal(-13)))
        CFI (cfiCond41) V0 load(1, XDATA, add(CFA_XSP16, literal(-12)))
        CFI (cfiCond41) V1 load(1, XDATA, add(CFA_XSP16, literal(-11)))
        CFI (cfiCond41) V2 load(1, XDATA, add(CFA_XSP16, literal(-10)))
        CFI (cfiCond41) V3 load(1, XDATA, add(CFA_XSP16, literal(-9)))
        CFI (cfiCond41) V4 load(1, XDATA, add(CFA_XSP16, literal(-8)))
        CFI (cfiCond41) V5 load(1, XDATA, add(CFA_XSP16, literal(-7)))
        CFI (cfiCond41) R7 load(1, XDATA, add(CFA_XSP16, literal(-6)))
        CFI (cfiCond41) ?RET_LOW load(1, XDATA, add(CFA_XSP16, literal(-5)))
        CFI (cfiCond41) ?RET_HIGH load(1, XDATA, add(CFA_XSP16, literal(-4)))
        CFI (cfiCond41) ?BRET_EXT load(1, XDATA, add(CFA_XSP16, literal(-3)))
        CFI (cfiCond41) DPL0 load(1, XDATA, add(CFA_XSP16, literal(-2)))
        CFI (cfiCond41) DPH0 load(1, XDATA, add(CFA_XSP16, literal(-1)))
        CFI (cfiCond41) CFA_SP SP+0
        CFI (cfiCond41) CFA_XSP16 add(XSP16, 16)
        CFI Block cfiCond42 Using cfiCommon0
        CFI (cfiCond42) NoFunction
        CFI (cfiCond42) Conditional ??CrossCallReturnLabel_19
        CFI (cfiCond42) R6 load(1, XDATA, add(CFA_XSP16, literal(-14)))
        CFI (cfiCond42) VB load(1, XDATA, add(CFA_XSP16, literal(-13)))
        CFI (cfiCond42) V0 load(1, XDATA, add(CFA_XSP16, literal(-12)))
        CFI (cfiCond42) V1 load(1, XDATA, add(CFA_XSP16, literal(-11)))
        CFI (cfiCond42) V2 load(1, XDATA, add(CFA_XSP16, literal(-10)))
        CFI (cfiCond42) V3 load(1, XDATA, add(CFA_XSP16, literal(-9)))
        CFI (cfiCond42) V4 load(1, XDATA, add(CFA_XSP16, literal(-8)))
        CFI (cfiCond42) V5 load(1, XDATA, add(CFA_XSP16, literal(-7)))
        CFI (cfiCond42) R7 load(1, XDATA, add(CFA_XSP16, literal(-6)))
        CFI (cfiCond42) ?RET_LOW load(1, XDATA, add(CFA_XSP16, literal(-5)))
        CFI (cfiCond42) ?RET_HIGH load(1, XDATA, add(CFA_XSP16, literal(-4)))
        CFI (cfiCond42) ?BRET_EXT load(1, XDATA, add(CFA_XSP16, literal(-3)))
        CFI (cfiCond42) DPL0 load(1, XDATA, add(CFA_XSP16, literal(-2)))
        CFI (cfiCond42) DPH0 load(1, XDATA, add(CFA_XSP16, literal(-1)))
        CFI (cfiCond42) CFA_SP SP+0
        CFI (cfiCond42) CFA_XSP16 add(XSP16, 16)
        CFI Block cfiPicker43 Using cfiCommon1
        CFI (cfiPicker43) NoFunction
        CFI (cfiPicker43) Picker
        MOV     R5,#0x0
        MOV     R2,#0x1
        MOV     R3,#0x0
        LCALL   ??EnddeviceApp_SendP2PMessage?relay
        MOV     A,#0x2
        RET
        CFI EndBlock cfiCond33
        CFI EndBlock cfiCond34
        CFI EndBlock cfiCond35
        CFI EndBlock cfiCond36
        CFI EndBlock cfiCond37
        CFI EndBlock cfiCond38
        CFI EndBlock cfiCond39
        CFI EndBlock cfiCond40
        CFI EndBlock cfiCond41
        CFI EndBlock cfiCond42
        CFI EndBlock cfiPicker43

        RSEG BANKED_CODE:CODE:NOROOT(0)
?Subroutine1:
        CFI Block cfiCond44 Using cfiCommon0
        CFI NoFunction
        CFI Conditional ??CrossCallReturnLabel_24
        CFI R6 load(1, XDATA, add(CFA_XSP16, literal(-14)))
        CFI VB load(1, XDATA, add(CFA_XSP16, literal(-13)))
        CFI V0 load(1, XDATA, add(CFA_XSP16, literal(-12)))
        CFI V1 load(1, XDATA, add(CFA_XSP16, literal(-11)))
        CFI V2 load(1, XDATA, add(CFA_XSP16, literal(-10)))
        CFI V3 load(1, XDATA, add(CFA_XSP16, literal(-9)))
        CFI V4 load(1, XDATA, add(CFA_XSP16, literal(-8)))
        CFI V5 load(1, XDATA, add(CFA_XSP16, literal(-7)))
        CFI R7 load(1, XDATA, add(CFA_XSP16, literal(-6)))
        CFI ?RET_LOW load(1, XDATA, add(CFA_XSP16, literal(-5)))
        CFI ?RET_HIGH load(1, XDATA, add(CFA_XSP16, literal(-4)))
        CFI ?BRET_EXT load(1, XDATA, add(CFA_XSP16, literal(-3)))
        CFI DPL0 load(1, XDATA, add(CFA_XSP16, literal(-2)))
        CFI DPH0 load(1, XDATA, add(CFA_XSP16, literal(-1)))
        CFI CFA_SP SP+0
        CFI CFA_XSP16 add(XSP16, 14)
        CFI Block cfiCond45 Using cfiCommon0
        CFI (cfiCond45) NoFunction
        CFI (cfiCond45) Conditional ??CrossCallReturnLabel_25
        CFI (cfiCond45) R6 load(1, XDATA, add(CFA_XSP16, literal(-14)))
        CFI (cfiCond45) VB load(1, XDATA, add(CFA_XSP16, literal(-13)))
        CFI (cfiCond45) V0 load(1, XDATA, add(CFA_XSP16, literal(-12)))
        CFI (cfiCond45) V1 load(1, XDATA, add(CFA_XSP16, literal(-11)))
        CFI (cfiCond45) V2 load(1, XDATA, add(CFA_XSP16, literal(-10)))
        CFI (cfiCond45) V3 load(1, XDATA, add(CFA_XSP16, literal(-9)))
        CFI (cfiCond45) V4 load(1, XDATA, add(CFA_XSP16, literal(-8)))
        CFI (cfiCond45) V5 load(1, XDATA, add(CFA_XSP16, literal(-7)))
        CFI (cfiCond45) R7 load(1, XDATA, add(CFA_XSP16, literal(-6)))
        CFI (cfiCond45) ?RET_LOW load(1, XDATA, add(CFA_XSP16, literal(-5)))
        CFI (cfiCond45) ?RET_HIGH load(1, XDATA, add(CFA_XSP16, literal(-4)))
        CFI (cfiCond45) ?BRET_EXT load(1, XDATA, add(CFA_XSP16, literal(-3)))
        CFI (cfiCond45) DPL0 load(1, XDATA, add(CFA_XSP16, literal(-2)))
        CFI (cfiCond45) DPH0 load(1, XDATA, add(CFA_XSP16, literal(-1)))
        CFI (cfiCond45) CFA_SP SP+0
        CFI (cfiCond45) CFA_XSP16 add(XSP16, 14)
        CFI Block cfiCond46 Using cfiCommon0
        CFI (cfiCond46) NoFunction
        CFI (cfiCond46) Conditional ??CrossCallReturnLabel_26
        CFI (cfiCond46) R6 load(1, XDATA, add(CFA_XSP16, literal(-14)))
        CFI (cfiCond46) VB load(1, XDATA, add(CFA_XSP16, literal(-13)))
        CFI (cfiCond46) V0 load(1, XDATA, add(CFA_XSP16, literal(-12)))
        CFI (cfiCond46) V1 load(1, XDATA, add(CFA_XSP16, literal(-11)))
        CFI (cfiCond46) V2 load(1, XDATA, add(CFA_XSP16, literal(-10)))
        CFI (cfiCond46) V3 load(1, XDATA, add(CFA_XSP16, literal(-9)))
        CFI (cfiCond46) V4 load(1, XDATA, add(CFA_XSP16, literal(-8)))
        CFI (cfiCond46) V5 load(1, XDATA, add(CFA_XSP16, literal(-7)))
        CFI (cfiCond46) R7 load(1, XDATA, add(CFA_XSP16, literal(-6)))
        CFI (cfiCond46) ?RET_LOW load(1, XDATA, add(CFA_XSP16, literal(-5)))
        CFI (cfiCond46) ?RET_HIGH load(1, XDATA, add(CFA_XSP16, literal(-4)))
        CFI (cfiCond46) ?BRET_EXT load(1, XDATA, add(CFA_XSP16, literal(-3)))
        CFI (cfiCond46) DPL0 load(1, XDATA, add(CFA_XSP16, literal(-2)))
        CFI (cfiCond46) DPH0 load(1, XDATA, add(CFA_XSP16, literal(-1)))
        CFI (cfiCond46) CFA_SP SP+0
        CFI (cfiCond46) CFA_XSP16 add(XSP16, 14)
        CFI Block cfiCond47 Using cfiCommon0
        CFI (cfiCond47) NoFunction
        CFI (cfiCond47) Conditional ??CrossCallReturnLabel_27
        CFI (cfiCond47) R6 load(1, XDATA, add(CFA_XSP16, literal(-14)))
        CFI (cfiCond47) VB load(1, XDATA, add(CFA_XSP16, literal(-13)))
        CFI (cfiCond47) V0 load(1, XDATA, add(CFA_XSP16, literal(-12)))
        CFI (cfiCond47) V1 load(1, XDATA, add(CFA_XSP16, literal(-11)))
        CFI (cfiCond47) V2 load(1, XDATA, add(CFA_XSP16, literal(-10)))
        CFI (cfiCond47) V3 load(1, XDATA, add(CFA_XSP16, literal(-9)))
        CFI (cfiCond47) V4 load(1, XDATA, add(CFA_XSP16, literal(-8)))
        CFI (cfiCond47) V5 load(1, XDATA, add(CFA_XSP16, literal(-7)))
        CFI (cfiCond47) R7 load(1, XDATA, add(CFA_XSP16, literal(-6)))
        CFI (cfiCond47) ?RET_LOW load(1, XDATA, add(CFA_XSP16, literal(-5)))
        CFI (cfiCond47) ?RET_HIGH load(1, XDATA, add(CFA_XSP16, literal(-4)))
        CFI (cfiCond47) ?BRET_EXT load(1, XDATA, add(CFA_XSP16, literal(-3)))
        CFI (cfiCond47) DPL0 load(1, XDATA, add(CFA_XSP16, literal(-2)))
        CFI (cfiCond47) DPH0 load(1, XDATA, add(CFA_XSP16, literal(-1)))
        CFI (cfiCond47) CFA_SP SP+0
        CFI (cfiCond47) CFA_XSP16 add(XSP16, 14)
        CFI Block cfiCond48 Using cfiCommon0
        CFI (cfiCond48) NoFunction
        CFI (cfiCond48) Conditional ??CrossCallReturnLabel_28
        CFI (cfiCond48) R6 load(1, XDATA, add(CFA_XSP16, literal(-14)))
        CFI (cfiCond48) VB load(1, XDATA, add(CFA_XSP16, literal(-13)))
        CFI (cfiCond48) V0 load(1, XDATA, add(CFA_XSP16, literal(-12)))
        CFI (cfiCond48) V1 load(1, XDATA, add(CFA_XSP16, literal(-11)))
        CFI (cfiCond48) V2 load(1, XDATA, add(CFA_XSP16, literal(-10)))
        CFI (cfiCond48) V3 load(1, XDATA, add(CFA_XSP16, literal(-9)))
        CFI (cfiCond48) V4 load(1, XDATA, add(CFA_XSP16, literal(-8)))
        CFI (cfiCond48) V5 load(1, XDATA, add(CFA_XSP16, literal(-7)))
        CFI (cfiCond48) R7 load(1, XDATA, add(CFA_XSP16, literal(-6)))
        CFI (cfiCond48) ?RET_LOW load(1, XDATA, add(CFA_XSP16, literal(-5)))
        CFI (cfiCond48) ?RET_HIGH load(1, XDATA, add(CFA_XSP16, literal(-4)))
        CFI (cfiCond48) ?BRET_EXT load(1, XDATA, add(CFA_XSP16, literal(-3)))
        CFI (cfiCond48) DPL0 load(1, XDATA, add(CFA_XSP16, literal(-2)))
        CFI (cfiCond48) DPH0 load(1, XDATA, add(CFA_XSP16, literal(-1)))
        CFI (cfiCond48) CFA_SP SP+0
        CFI (cfiCond48) CFA_XSP16 add(XSP16, 14)
        CFI Block cfiPicker49 Using cfiCommon1
        CFI (cfiPicker49) NoFunction
        CFI (cfiPicker49) Picker
        MOV     DPTR,#MsgBuf
        MOV     A,#0x1
        CFI EndBlock cfiCond44
        CFI EndBlock cfiCond45
        CFI EndBlock cfiCond46
        CFI EndBlock cfiCond47
        CFI EndBlock cfiCond48
        CFI EndBlock cfiPicker49
        REQUIRE ??Subroutine12_0
        ; // Fall through to label ??Subroutine12_0

        RSEG BANKED_CODE:CODE:NOROOT(0)
??Subroutine12_0:
        CFI Block cfiCond50 Using cfiCommon0
        CFI NoFunction
        CFI Conditional ??CrossCallReturnLabel_29
        CFI R6 load(1, XDATA, add(CFA_XSP16, literal(-14)))
        CFI VB load(1, XDATA, add(CFA_XSP16, literal(-13)))
        CFI V0 load(1, XDATA, add(CFA_XSP16, literal(-12)))
        CFI V1 load(1, XDATA, add(CFA_XSP16, literal(-11)))
        CFI V2 load(1, XDATA, add(CFA_XSP16, literal(-10)))
        CFI V3 load(1, XDATA, add(CFA_XSP16, literal(-9)))
        CFI V4 load(1, XDATA, add(CFA_XSP16, literal(-8)))
        CFI V5 load(1, XDATA, add(CFA_XSP16, literal(-7)))
        CFI R7 load(1, XDATA, add(CFA_XSP16, literal(-6)))
        CFI ?RET_LOW load(1, XDATA, add(CFA_XSP16, literal(-5)))
        CFI ?RET_HIGH load(1, XDATA, add(CFA_XSP16, literal(-4)))
        CFI ?BRET_EXT load(1, XDATA, add(CFA_XSP16, literal(-3)))
        CFI DPL0 load(1, XDATA, add(CFA_XSP16, literal(-2)))
        CFI DPH0 load(1, XDATA, add(CFA_XSP16, literal(-1)))
        CFI CFA_SP SP+0
        CFI CFA_XSP16 add(XSP16, 14)
        CFI Block cfiCond51 Using cfiCommon0
        CFI (cfiCond51) NoFunction
        CFI (cfiCond51) Conditional ??CrossCallReturnLabel_30
        CFI (cfiCond51) R6 load(1, XDATA, add(CFA_XSP16, literal(-14)))
        CFI (cfiCond51) VB load(1, XDATA, add(CFA_XSP16, literal(-13)))
        CFI (cfiCond51) V0 load(1, XDATA, add(CFA_XSP16, literal(-12)))
        CFI (cfiCond51) V1 load(1, XDATA, add(CFA_XSP16, literal(-11)))
        CFI (cfiCond51) V2 load(1, XDATA, add(CFA_XSP16, literal(-10)))
        CFI (cfiCond51) V3 load(1, XDATA, add(CFA_XSP16, literal(-9)))
        CFI (cfiCond51) V4 load(1, XDATA, add(CFA_XSP16, literal(-8)))
        CFI (cfiCond51) V5 load(1, XDATA, add(CFA_XSP16, literal(-7)))
        CFI (cfiCond51) R7 load(1, XDATA, add(CFA_XSP16, literal(-6)))
        CFI (cfiCond51) ?RET_LOW load(1, XDATA, add(CFA_XSP16, literal(-5)))
        CFI (cfiCond51) ?RET_HIGH load(1, XDATA, add(CFA_XSP16, literal(-4)))
        CFI (cfiCond51) ?BRET_EXT load(1, XDATA, add(CFA_XSP16, literal(-3)))
        CFI (cfiCond51) DPL0 load(1, XDATA, add(CFA_XSP16, literal(-2)))
        CFI (cfiCond51) DPH0 load(1, XDATA, add(CFA_XSP16, literal(-1)))
        CFI (cfiCond51) CFA_SP SP+0
        CFI (cfiCond51) CFA_XSP16 add(XSP16, 14)
        CFI Block cfiCond52 Using cfiCommon0
        CFI (cfiCond52) NoFunction
        CFI (cfiCond52) Conditional ??CrossCallReturnLabel_31
        CFI (cfiCond52) R6 load(1, XDATA, add(CFA_XSP16, literal(-14)))
        CFI (cfiCond52) VB load(1, XDATA, add(CFA_XSP16, literal(-13)))
        CFI (cfiCond52) V0 load(1, XDATA, add(CFA_XSP16, literal(-12)))
        CFI (cfiCond52) V1 load(1, XDATA, add(CFA_XSP16, literal(-11)))
        CFI (cfiCond52) V2 load(1, XDATA, add(CFA_XSP16, literal(-10)))
        CFI (cfiCond52) V3 load(1, XDATA, add(CFA_XSP16, literal(-9)))
        CFI (cfiCond52) V4 load(1, XDATA, add(CFA_XSP16, literal(-8)))
        CFI (cfiCond52) V5 load(1, XDATA, add(CFA_XSP16, literal(-7)))
        CFI (cfiCond52) R7 load(1, XDATA, add(CFA_XSP16, literal(-6)))
        CFI (cfiCond52) ?RET_LOW load(1, XDATA, add(CFA_XSP16, literal(-5)))
        CFI (cfiCond52) ?RET_HIGH load(1, XDATA, add(CFA_XSP16, literal(-4)))
        CFI (cfiCond52) ?BRET_EXT load(1, XDATA, add(CFA_XSP16, literal(-3)))
        CFI (cfiCond52) DPL0 load(1, XDATA, add(CFA_XSP16, literal(-2)))
        CFI (cfiCond52) DPH0 load(1, XDATA, add(CFA_XSP16, literal(-1)))
        CFI (cfiCond52) CFA_SP SP+0
        CFI (cfiCond52) CFA_XSP16 add(XSP16, 14)
        CFI Block cfiCond53 Using cfiCommon0
        CFI (cfiCond53) NoFunction
        CFI (cfiCond53) Conditional ??CrossCallReturnLabel_24
        CFI (cfiCond53) R6 load(1, XDATA, add(CFA_XSP16, literal(-14)))
        CFI (cfiCond53) VB load(1, XDATA, add(CFA_XSP16, literal(-13)))
        CFI (cfiCond53) V0 load(1, XDATA, add(CFA_XSP16, literal(-12)))
        CFI (cfiCond53) V1 load(1, XDATA, add(CFA_XSP16, literal(-11)))
        CFI (cfiCond53) V2 load(1, XDATA, add(CFA_XSP16, literal(-10)))
        CFI (cfiCond53) V3 load(1, XDATA, add(CFA_XSP16, literal(-9)))
        CFI (cfiCond53) V4 load(1, XDATA, add(CFA_XSP16, literal(-8)))
        CFI (cfiCond53) V5 load(1, XDATA, add(CFA_XSP16, literal(-7)))
        CFI (cfiCond53) R7 load(1, XDATA, add(CFA_XSP16, literal(-6)))
        CFI (cfiCond53) ?RET_LOW load(1, XDATA, add(CFA_XSP16, literal(-5)))
        CFI (cfiCond53) ?RET_HIGH load(1, XDATA, add(CFA_XSP16, literal(-4)))
        CFI (cfiCond53) ?BRET_EXT load(1, XDATA, add(CFA_XSP16, literal(-3)))
        CFI (cfiCond53) DPL0 load(1, XDATA, add(CFA_XSP16, literal(-2)))
        CFI (cfiCond53) DPH0 load(1, XDATA, add(CFA_XSP16, literal(-1)))
        CFI (cfiCond53) CFA_SP SP+0
        CFI (cfiCond53) CFA_XSP16 add(XSP16, 14)
        CFI Block cfiCond54 Using cfiCommon0
        CFI (cfiCond54) NoFunction
        CFI (cfiCond54) Conditional ??CrossCallReturnLabel_25
        CFI (cfiCond54) R6 load(1, XDATA, add(CFA_XSP16, literal(-14)))
        CFI (cfiCond54) VB load(1, XDATA, add(CFA_XSP16, literal(-13)))
        CFI (cfiCond54) V0 load(1, XDATA, add(CFA_XSP16, literal(-12)))
        CFI (cfiCond54) V1 load(1, XDATA, add(CFA_XSP16, literal(-11)))
        CFI (cfiCond54) V2 load(1, XDATA, add(CFA_XSP16, literal(-10)))
        CFI (cfiCond54) V3 load(1, XDATA, add(CFA_XSP16, literal(-9)))
        CFI (cfiCond54) V4 load(1, XDATA, add(CFA_XSP16, literal(-8)))
        CFI (cfiCond54) V5 load(1, XDATA, add(CFA_XSP16, literal(-7)))
        CFI (cfiCond54) R7 load(1, XDATA, add(CFA_XSP16, literal(-6)))
        CFI (cfiCond54) ?RET_LOW load(1, XDATA, add(CFA_XSP16, literal(-5)))
        CFI (cfiCond54) ?RET_HIGH load(1, XDATA, add(CFA_XSP16, literal(-4)))
        CFI (cfiCond54) ?BRET_EXT load(1, XDATA, add(CFA_XSP16, literal(-3)))
        CFI (cfiCond54) DPL0 load(1, XDATA, add(CFA_XSP16, literal(-2)))
        CFI (cfiCond54) DPH0 load(1, XDATA, add(CFA_XSP16, literal(-1)))
        CFI (cfiCond54) CFA_SP SP+0
        CFI (cfiCond54) CFA_XSP16 add(XSP16, 14)
        CFI Block cfiCond55 Using cfiCommon0
        CFI (cfiCond55) NoFunction
        CFI (cfiCond55) Conditional ??CrossCallReturnLabel_26
        CFI (cfiCond55) R6 load(1, XDATA, add(CFA_XSP16, literal(-14)))
        CFI (cfiCond55) VB load(1, XDATA, add(CFA_XSP16, literal(-13)))
        CFI (cfiCond55) V0 load(1, XDATA, add(CFA_XSP16, literal(-12)))
        CFI (cfiCond55) V1 load(1, XDATA, add(CFA_XSP16, literal(-11)))
        CFI (cfiCond55) V2 load(1, XDATA, add(CFA_XSP16, literal(-10)))
        CFI (cfiCond55) V3 load(1, XDATA, add(CFA_XSP16, literal(-9)))
        CFI (cfiCond55) V4 load(1, XDATA, add(CFA_XSP16, literal(-8)))
        CFI (cfiCond55) V5 load(1, XDATA, add(CFA_XSP16, literal(-7)))
        CFI (cfiCond55) R7 load(1, XDATA, add(CFA_XSP16, literal(-6)))
        CFI (cfiCond55) ?RET_LOW load(1, XDATA, add(CFA_XSP16, literal(-5)))
        CFI (cfiCond55) ?RET_HIGH load(1, XDATA, add(CFA_XSP16, literal(-4)))
        CFI (cfiCond55) ?BRET_EXT load(1, XDATA, add(CFA_XSP16, literal(-3)))
        CFI (cfiCond55) DPL0 load(1, XDATA, add(CFA_XSP16, literal(-2)))
        CFI (cfiCond55) DPH0 load(1, XDATA, add(CFA_XSP16, literal(-1)))
        CFI (cfiCond55) CFA_SP SP+0
        CFI (cfiCond55) CFA_XSP16 add(XSP16, 14)
        CFI Block cfiCond56 Using cfiCommon0
        CFI (cfiCond56) NoFunction
        CFI (cfiCond56) Conditional ??CrossCallReturnLabel_27
        CFI (cfiCond56) R6 load(1, XDATA, add(CFA_XSP16, literal(-14)))
        CFI (cfiCond56) VB load(1, XDATA, add(CFA_XSP16, literal(-13)))
        CFI (cfiCond56) V0 load(1, XDATA, add(CFA_XSP16, literal(-12)))
        CFI (cfiCond56) V1 load(1, XDATA, add(CFA_XSP16, literal(-11)))
        CFI (cfiCond56) V2 load(1, XDATA, add(CFA_XSP16, literal(-10)))
        CFI (cfiCond56) V3 load(1, XDATA, add(CFA_XSP16, literal(-9)))
        CFI (cfiCond56) V4 load(1, XDATA, add(CFA_XSP16, literal(-8)))
        CFI (cfiCond56) V5 load(1, XDATA, add(CFA_XSP16, literal(-7)))
        CFI (cfiCond56) R7 load(1, XDATA, add(CFA_XSP16, literal(-6)))
        CFI (cfiCond56) ?RET_LOW load(1, XDATA, add(CFA_XSP16, literal(-5)))
        CFI (cfiCond56) ?RET_HIGH load(1, XDATA, add(CFA_XSP16, literal(-4)))
        CFI (cfiCond56) ?BRET_EXT load(1, XDATA, add(CFA_XSP16, literal(-3)))
        CFI (cfiCond56) DPL0 load(1, XDATA, add(CFA_XSP16, literal(-2)))
        CFI (cfiCond56) DPH0 load(1, XDATA, add(CFA_XSP16, literal(-1)))
        CFI (cfiCond56) CFA_SP SP+0
        CFI (cfiCond56) CFA_XSP16 add(XSP16, 14)
        CFI Block cfiCond57 Using cfiCommon0
        CFI (cfiCond57) NoFunction
        CFI (cfiCond57) Conditional ??CrossCallReturnLabel_28
        CFI (cfiCond57) R6 load(1, XDATA, add(CFA_XSP16, literal(-14)))
        CFI (cfiCond57) VB load(1, XDATA, add(CFA_XSP16, literal(-13)))
        CFI (cfiCond57) V0 load(1, XDATA, add(CFA_XSP16, literal(-12)))
        CFI (cfiCond57) V1 load(1, XDATA, add(CFA_XSP16, literal(-11)))
        CFI (cfiCond57) V2 load(1, XDATA, add(CFA_XSP16, literal(-10)))
        CFI (cfiCond57) V3 load(1, XDATA, add(CFA_XSP16, literal(-9)))
        CFI (cfiCond57) V4 load(1, XDATA, add(CFA_XSP16, literal(-8)))
        CFI (cfiCond57) V5 load(1, XDATA, add(CFA_XSP16, literal(-7)))
        CFI (cfiCond57) R7 load(1, XDATA, add(CFA_XSP16, literal(-6)))
        CFI (cfiCond57) ?RET_LOW load(1, XDATA, add(CFA_XSP16, literal(-5)))
        CFI (cfiCond57) ?RET_HIGH load(1, XDATA, add(CFA_XSP16, literal(-4)))
        CFI (cfiCond57) ?BRET_EXT load(1, XDATA, add(CFA_XSP16, literal(-3)))
        CFI (cfiCond57) DPL0 load(1, XDATA, add(CFA_XSP16, literal(-2)))
        CFI (cfiCond57) DPH0 load(1, XDATA, add(CFA_XSP16, literal(-1)))
        CFI (cfiCond57) CFA_SP SP+0
        CFI (cfiCond57) CFA_XSP16 add(XSP16, 14)
        CFI Block cfiPicker58 Using cfiCommon1
        CFI (cfiPicker58) NoFunction
        CFI (cfiPicker58) Picker
        LCALL   ?Subroutine8 & 0xFFFF
??CrossCallReturnLabel_32:
        RET
        CFI EndBlock cfiCond50
        CFI EndBlock cfiCond51
        CFI EndBlock cfiCond52
        CFI EndBlock cfiCond53
        CFI EndBlock cfiCond54
        CFI EndBlock cfiCond55
        CFI EndBlock cfiCond56
        CFI EndBlock cfiCond57
        CFI EndBlock cfiPicker58

        RSEG BANKED_CODE:CODE:NOROOT(0)
?Subroutine8:
        CFI Block cfiCond59 Using cfiCommon0
        CFI NoFunction
        CFI Conditional ??CrossCallReturnLabel_32, ??CrossCallReturnLabel_24
        CFI R6 load(1, XDATA, add(CFA_XSP16, literal(-14)))
        CFI VB load(1, XDATA, add(CFA_XSP16, literal(-13)))
        CFI V0 load(1, XDATA, add(CFA_XSP16, literal(-12)))
        CFI V1 load(1, XDATA, add(CFA_XSP16, literal(-11)))
        CFI V2 load(1, XDATA, add(CFA_XSP16, literal(-10)))
        CFI V3 load(1, XDATA, add(CFA_XSP16, literal(-9)))
        CFI V4 load(1, XDATA, add(CFA_XSP16, literal(-8)))
        CFI V5 load(1, XDATA, add(CFA_XSP16, literal(-7)))
        CFI R7 load(1, XDATA, add(CFA_XSP16, literal(-6)))
        CFI ?RET_LOW load(1, XDATA, add(CFA_XSP16, literal(-5)))
        CFI ?RET_HIGH load(1, XDATA, add(CFA_XSP16, literal(-4)))
        CFI ?BRET_EXT load(1, XDATA, add(CFA_XSP16, literal(-3)))
        CFI DPL0 load(1, XDATA, add(CFA_XSP16, literal(-2)))
        CFI DPH0 load(1, XDATA, add(CFA_XSP16, literal(-1)))
        CFI CFA_SP SP+0
        CFI CFA_XSP16 add(XSP16, 14)
        CFI Block cfiCond60 Using cfiCommon0
        CFI (cfiCond60) NoFunction
        CFI (cfiCond60) Conditional ??CrossCallReturnLabel_32, ??CrossCallReturnLabel_25
        CFI (cfiCond60) R6 load(1, XDATA, add(CFA_XSP16, literal(-14)))
        CFI (cfiCond60) VB load(1, XDATA, add(CFA_XSP16, literal(-13)))
        CFI (cfiCond60) V0 load(1, XDATA, add(CFA_XSP16, literal(-12)))
        CFI (cfiCond60) V1 load(1, XDATA, add(CFA_XSP16, literal(-11)))
        CFI (cfiCond60) V2 load(1, XDATA, add(CFA_XSP16, literal(-10)))
        CFI (cfiCond60) V3 load(1, XDATA, add(CFA_XSP16, literal(-9)))
        CFI (cfiCond60) V4 load(1, XDATA, add(CFA_XSP16, literal(-8)))
        CFI (cfiCond60) V5 load(1, XDATA, add(CFA_XSP16, literal(-7)))
        CFI (cfiCond60) R7 load(1, XDATA, add(CFA_XSP16, literal(-6)))
        CFI (cfiCond60) ?RET_LOW load(1, XDATA, add(CFA_XSP16, literal(-5)))
        CFI (cfiCond60) ?RET_HIGH load(1, XDATA, add(CFA_XSP16, literal(-4)))
        CFI (cfiCond60) ?BRET_EXT load(1, XDATA, add(CFA_XSP16, literal(-3)))
        CFI (cfiCond60) DPL0 load(1, XDATA, add(CFA_XSP16, literal(-2)))
        CFI (cfiCond60) DPH0 load(1, XDATA, add(CFA_XSP16, literal(-1)))
        CFI (cfiCond60) CFA_SP SP+0
        CFI (cfiCond60) CFA_XSP16 add(XSP16, 14)
        CFI Block cfiCond61 Using cfiCommon0
        CFI (cfiCond61) NoFunction
        CFI (cfiCond61) Conditional ??CrossCallReturnLabel_32, ??CrossCallReturnLabel_26
        CFI (cfiCond61) R6 load(1, XDATA, add(CFA_XSP16, literal(-14)))
        CFI (cfiCond61) VB load(1, XDATA, add(CFA_XSP16, literal(-13)))
        CFI (cfiCond61) V0 load(1, XDATA, add(CFA_XSP16, literal(-12)))
        CFI (cfiCond61) V1 load(1, XDATA, add(CFA_XSP16, literal(-11)))
        CFI (cfiCond61) V2 load(1, XDATA, add(CFA_XSP16, literal(-10)))
        CFI (cfiCond61) V3 load(1, XDATA, add(CFA_XSP16, literal(-9)))
        CFI (cfiCond61) V4 load(1, XDATA, add(CFA_XSP16, literal(-8)))
        CFI (cfiCond61) V5 load(1, XDATA, add(CFA_XSP16, literal(-7)))
        CFI (cfiCond61) R7 load(1, XDATA, add(CFA_XSP16, literal(-6)))
        CFI (cfiCond61) ?RET_LOW load(1, XDATA, add(CFA_XSP16, literal(-5)))
        CFI (cfiCond61) ?RET_HIGH load(1, XDATA, add(CFA_XSP16, literal(-4)))
        CFI (cfiCond61) ?BRET_EXT load(1, XDATA, add(CFA_XSP16, literal(-3)))
        CFI (cfiCond61) DPL0 load(1, XDATA, add(CFA_XSP16, literal(-2)))
        CFI (cfiCond61) DPH0 load(1, XDATA, add(CFA_XSP16, literal(-1)))
        CFI (cfiCond61) CFA_SP SP+0
        CFI (cfiCond61) CFA_XSP16 add(XSP16, 14)
        CFI Block cfiCond62 Using cfiCommon0
        CFI (cfiCond62) NoFunction
        CFI (cfiCond62) Conditional ??CrossCallReturnLabel_32, ??CrossCallReturnLabel_27
        CFI (cfiCond62) R6 load(1, XDATA, add(CFA_XSP16, literal(-14)))
        CFI (cfiCond62) VB load(1, XDATA, add(CFA_XSP16, literal(-13)))
        CFI (cfiCond62) V0 load(1, XDATA, add(CFA_XSP16, literal(-12)))
        CFI (cfiCond62) V1 load(1, XDATA, add(CFA_XSP16, literal(-11)))
        CFI (cfiCond62) V2 load(1, XDATA, add(CFA_XSP16, literal(-10)))
        CFI (cfiCond62) V3 load(1, XDATA, add(CFA_XSP16, literal(-9)))
        CFI (cfiCond62) V4 load(1, XDATA, add(CFA_XSP16, literal(-8)))
        CFI (cfiCond62) V5 load(1, XDATA, add(CFA_XSP16, literal(-7)))
        CFI (cfiCond62) R7 load(1, XDATA, add(CFA_XSP16, literal(-6)))
        CFI (cfiCond62) ?RET_LOW load(1, XDATA, add(CFA_XSP16, literal(-5)))
        CFI (cfiCond62) ?RET_HIGH load(1, XDATA, add(CFA_XSP16, literal(-4)))
        CFI (cfiCond62) ?BRET_EXT load(1, XDATA, add(CFA_XSP16, literal(-3)))
        CFI (cfiCond62) DPL0 load(1, XDATA, add(CFA_XSP16, literal(-2)))
        CFI (cfiCond62) DPH0 load(1, XDATA, add(CFA_XSP16, literal(-1)))
        CFI (cfiCond62) CFA_SP SP+0
        CFI (cfiCond62) CFA_XSP16 add(XSP16, 14)
        CFI Block cfiCond63 Using cfiCommon0
        CFI (cfiCond63) NoFunction
        CFI (cfiCond63) Conditional ??CrossCallReturnLabel_32, ??CrossCallReturnLabel_28
        CFI (cfiCond63) R6 load(1, XDATA, add(CFA_XSP16, literal(-14)))
        CFI (cfiCond63) VB load(1, XDATA, add(CFA_XSP16, literal(-13)))
        CFI (cfiCond63) V0 load(1, XDATA, add(CFA_XSP16, literal(-12)))
        CFI (cfiCond63) V1 load(1, XDATA, add(CFA_XSP16, literal(-11)))
        CFI (cfiCond63) V2 load(1, XDATA, add(CFA_XSP16, literal(-10)))
        CFI (cfiCond63) V3 load(1, XDATA, add(CFA_XSP16, literal(-9)))
        CFI (cfiCond63) V4 load(1, XDATA, add(CFA_XSP16, literal(-8)))
        CFI (cfiCond63) V5 load(1, XDATA, add(CFA_XSP16, literal(-7)))
        CFI (cfiCond63) R7 load(1, XDATA, add(CFA_XSP16, literal(-6)))
        CFI (cfiCond63) ?RET_LOW load(1, XDATA, add(CFA_XSP16, literal(-5)))
        CFI (cfiCond63) ?RET_HIGH load(1, XDATA, add(CFA_XSP16, literal(-4)))
        CFI (cfiCond63) ?BRET_EXT load(1, XDATA, add(CFA_XSP16, literal(-3)))
        CFI (cfiCond63) DPL0 load(1, XDATA, add(CFA_XSP16, literal(-2)))
        CFI (cfiCond63) DPH0 load(1, XDATA, add(CFA_XSP16, literal(-1)))
        CFI (cfiCond63) CFA_SP SP+0
        CFI (cfiCond63) CFA_XSP16 add(XSP16, 14)
        CFI Block cfiCond64 Using cfiCommon0
        CFI (cfiCond64) NoFunction
        CFI (cfiCond64) Conditional ??CrossCallReturnLabel_32, ??CrossCallReturnLabel_29
        CFI (cfiCond64) R6 load(1, XDATA, add(CFA_XSP16, literal(-14)))
        CFI (cfiCond64) VB load(1, XDATA, add(CFA_XSP16, literal(-13)))
        CFI (cfiCond64) V0 load(1, XDATA, add(CFA_XSP16, literal(-12)))
        CFI (cfiCond64) V1 load(1, XDATA, add(CFA_XSP16, literal(-11)))
        CFI (cfiCond64) V2 load(1, XDATA, add(CFA_XSP16, literal(-10)))
        CFI (cfiCond64) V3 load(1, XDATA, add(CFA_XSP16, literal(-9)))
        CFI (cfiCond64) V4 load(1, XDATA, add(CFA_XSP16, literal(-8)))
        CFI (cfiCond64) V5 load(1, XDATA, add(CFA_XSP16, literal(-7)))
        CFI (cfiCond64) R7 load(1, XDATA, add(CFA_XSP16, literal(-6)))
        CFI (cfiCond64) ?RET_LOW load(1, XDATA, add(CFA_XSP16, literal(-5)))
        CFI (cfiCond64) ?RET_HIGH load(1, XDATA, add(CFA_XSP16, literal(-4)))
        CFI (cfiCond64) ?BRET_EXT load(1, XDATA, add(CFA_XSP16, literal(-3)))
        CFI (cfiCond64) DPL0 load(1, XDATA, add(CFA_XSP16, literal(-2)))
        CFI (cfiCond64) DPH0 load(1, XDATA, add(CFA_XSP16, literal(-1)))
        CFI (cfiCond64) CFA_SP SP+0
        CFI (cfiCond64) CFA_XSP16 add(XSP16, 14)
        CFI Block cfiCond65 Using cfiCommon0
        CFI (cfiCond65) NoFunction
        CFI (cfiCond65) Conditional ??CrossCallReturnLabel_32, ??CrossCallReturnLabel_30
        CFI (cfiCond65) R6 load(1, XDATA, add(CFA_XSP16, literal(-14)))
        CFI (cfiCond65) VB load(1, XDATA, add(CFA_XSP16, literal(-13)))
        CFI (cfiCond65) V0 load(1, XDATA, add(CFA_XSP16, literal(-12)))
        CFI (cfiCond65) V1 load(1, XDATA, add(CFA_XSP16, literal(-11)))
        CFI (cfiCond65) V2 load(1, XDATA, add(CFA_XSP16, literal(-10)))
        CFI (cfiCond65) V3 load(1, XDATA, add(CFA_XSP16, literal(-9)))
        CFI (cfiCond65) V4 load(1, XDATA, add(CFA_XSP16, literal(-8)))
        CFI (cfiCond65) V5 load(1, XDATA, add(CFA_XSP16, literal(-7)))
        CFI (cfiCond65) R7 load(1, XDATA, add(CFA_XSP16, literal(-6)))
        CFI (cfiCond65) ?RET_LOW load(1, XDATA, add(CFA_XSP16, literal(-5)))
        CFI (cfiCond65) ?RET_HIGH load(1, XDATA, add(CFA_XSP16, literal(-4)))
        CFI (cfiCond65) ?BRET_EXT load(1, XDATA, add(CFA_XSP16, literal(-3)))
        CFI (cfiCond65) DPL0 load(1, XDATA, add(CFA_XSP16, literal(-2)))
        CFI (cfiCond65) DPH0 load(1, XDATA, add(CFA_XSP16, literal(-1)))
        CFI (cfiCond65) CFA_SP SP+0
        CFI (cfiCond65) CFA_XSP16 add(XSP16, 14)
        CFI Block cfiCond66 Using cfiCommon0
        CFI (cfiCond66) NoFunction
        CFI (cfiCond66) Conditional ??CrossCallReturnLabel_32, ??CrossCallReturnLabel_31
        CFI (cfiCond66) R6 load(1, XDATA, add(CFA_XSP16, literal(-14)))
        CFI (cfiCond66) VB load(1, XDATA, add(CFA_XSP16, literal(-13)))
        CFI (cfiCond66) V0 load(1, XDATA, add(CFA_XSP16, literal(-12)))
        CFI (cfiCond66) V1 load(1, XDATA, add(CFA_XSP16, literal(-11)))
        CFI (cfiCond66) V2 load(1, XDATA, add(CFA_XSP16, literal(-10)))
        CFI (cfiCond66) V3 load(1, XDATA, add(CFA_XSP16, literal(-9)))
        CFI (cfiCond66) V4 load(1, XDATA, add(CFA_XSP16, literal(-8)))
        CFI (cfiCond66) V5 load(1, XDATA, add(CFA_XSP16, literal(-7)))
        CFI (cfiCond66) R7 load(1, XDATA, add(CFA_XSP16, literal(-6)))
        CFI (cfiCond66) ?RET_LOW load(1, XDATA, add(CFA_XSP16, literal(-5)))
        CFI (cfiCond66) ?RET_HIGH load(1, XDATA, add(CFA_XSP16, literal(-4)))
        CFI (cfiCond66) ?BRET_EXT load(1, XDATA, add(CFA_XSP16, literal(-3)))
        CFI (cfiCond66) DPL0 load(1, XDATA, add(CFA_XSP16, literal(-2)))
        CFI (cfiCond66) DPH0 load(1, XDATA, add(CFA_XSP16, literal(-1)))
        CFI (cfiCond66) CFA_SP SP+0
        CFI (cfiCond66) CFA_XSP16 add(XSP16, 14)
        CFI Block cfiCond67 Using cfiCommon0
        CFI (cfiCond67) NoFunction
        CFI (cfiCond67) Conditional ??CrossCallReturnLabel_33, ??CrossCallReturnLabel_34
        CFI (cfiCond67) R6 load(1, XDATA, add(CFA_XSP16, literal(-14)))
        CFI (cfiCond67) VB load(1, XDATA, add(CFA_XSP16, literal(-13)))
        CFI (cfiCond67) V0 load(1, XDATA, add(CFA_XSP16, literal(-12)))
        CFI (cfiCond67) V1 load(1, XDATA, add(CFA_XSP16, literal(-11)))
        CFI (cfiCond67) V2 load(1, XDATA, add(CFA_XSP16, literal(-10)))
        CFI (cfiCond67) V3 load(1, XDATA, add(CFA_XSP16, literal(-9)))
        CFI (cfiCond67) V4 load(1, XDATA, add(CFA_XSP16, literal(-8)))
        CFI (cfiCond67) V5 load(1, XDATA, add(CFA_XSP16, literal(-7)))
        CFI (cfiCond67) R7 load(1, XDATA, add(CFA_XSP16, literal(-6)))
        CFI (cfiCond67) ?RET_LOW load(1, XDATA, add(CFA_XSP16, literal(-5)))
        CFI (cfiCond67) ?RET_HIGH load(1, XDATA, add(CFA_XSP16, literal(-4)))
        CFI (cfiCond67) ?BRET_EXT load(1, XDATA, add(CFA_XSP16, literal(-3)))
        CFI (cfiCond67) DPL0 load(1, XDATA, add(CFA_XSP16, literal(-2)))
        CFI (cfiCond67) DPH0 load(1, XDATA, add(CFA_XSP16, literal(-1)))
        CFI (cfiCond67) CFA_SP SP+0
        CFI (cfiCond67) CFA_XSP16 add(XSP16, 14)
        CFI Block cfiCond68 Using cfiCommon0
        CFI (cfiCond68) NoFunction
        CFI (cfiCond68) Conditional ??CrossCallReturnLabel_33, ??CrossCallReturnLabel_35
        CFI (cfiCond68) R6 load(1, XDATA, add(CFA_XSP16, literal(-14)))
        CFI (cfiCond68) VB load(1, XDATA, add(CFA_XSP16, literal(-13)))
        CFI (cfiCond68) V0 load(1, XDATA, add(CFA_XSP16, literal(-12)))
        CFI (cfiCond68) V1 load(1, XDATA, add(CFA_XSP16, literal(-11)))
        CFI (cfiCond68) V2 load(1, XDATA, add(CFA_XSP16, literal(-10)))
        CFI (cfiCond68) V3 load(1, XDATA, add(CFA_XSP16, literal(-9)))
        CFI (cfiCond68) V4 load(1, XDATA, add(CFA_XSP16, literal(-8)))
        CFI (cfiCond68) V5 load(1, XDATA, add(CFA_XSP16, literal(-7)))
        CFI (cfiCond68) R7 load(1, XDATA, add(CFA_XSP16, literal(-6)))
        CFI (cfiCond68) ?RET_LOW load(1, XDATA, add(CFA_XSP16, literal(-5)))
        CFI (cfiCond68) ?RET_HIGH load(1, XDATA, add(CFA_XSP16, literal(-4)))
        CFI (cfiCond68) ?BRET_EXT load(1, XDATA, add(CFA_XSP16, literal(-3)))
        CFI (cfiCond68) DPL0 load(1, XDATA, add(CFA_XSP16, literal(-2)))
        CFI (cfiCond68) DPH0 load(1, XDATA, add(CFA_XSP16, literal(-1)))
        CFI (cfiCond68) CFA_SP SP+0
        CFI (cfiCond68) CFA_XSP16 add(XSP16, 14)
        CFI Block cfiPicker69 Using cfiCommon1
        CFI (cfiPicker69) NoFunction
        CFI (cfiPicker69) Picker
        MOVX    @DPTR,A
        MOV     DPTR,#MyDeviceId
        MOVX    A,@DPTR
        MOV     DPTR,#MsgBuf + 1
        MOVX    @DPTR,A
        INC     DPTR
        RET
        CFI EndBlock cfiCond59
        CFI EndBlock cfiCond60
        CFI EndBlock cfiCond61
        CFI EndBlock cfiCond62
        CFI EndBlock cfiCond63
        CFI EndBlock cfiCond64
        CFI EndBlock cfiCond65
        CFI EndBlock cfiCond66
        CFI EndBlock cfiCond67
        CFI EndBlock cfiCond68
        CFI EndBlock cfiPicker69

        RSEG BANKED_CODE:CODE:NOROOT(0)
?Subroutine0:
        CFI Block cfiCond70 Using cfiCommon0
        CFI NoFunction
        CFI Conditional ??CrossCallReturnLabel_34
        CFI R6 load(1, XDATA, add(CFA_XSP16, literal(-14)))
        CFI VB load(1, XDATA, add(CFA_XSP16, literal(-13)))
        CFI V0 load(1, XDATA, add(CFA_XSP16, literal(-12)))
        CFI V1 load(1, XDATA, add(CFA_XSP16, literal(-11)))
        CFI V2 load(1, XDATA, add(CFA_XSP16, literal(-10)))
        CFI V3 load(1, XDATA, add(CFA_XSP16, literal(-9)))
        CFI V4 load(1, XDATA, add(CFA_XSP16, literal(-8)))
        CFI V5 load(1, XDATA, add(CFA_XSP16, literal(-7)))
        CFI R7 load(1, XDATA, add(CFA_XSP16, literal(-6)))
        CFI ?RET_LOW load(1, XDATA, add(CFA_XSP16, literal(-5)))
        CFI ?RET_HIGH load(1, XDATA, add(CFA_XSP16, literal(-4)))
        CFI ?BRET_EXT load(1, XDATA, add(CFA_XSP16, literal(-3)))
        CFI DPL0 load(1, XDATA, add(CFA_XSP16, literal(-2)))
        CFI DPH0 load(1, XDATA, add(CFA_XSP16, literal(-1)))
        CFI CFA_SP SP+0
        CFI CFA_XSP16 add(XSP16, 14)
        CFI Block cfiCond71 Using cfiCommon0
        CFI (cfiCond71) NoFunction
        CFI (cfiCond71) Conditional ??CrossCallReturnLabel_35
        CFI (cfiCond71) R6 load(1, XDATA, add(CFA_XSP16, literal(-14)))
        CFI (cfiCond71) VB load(1, XDATA, add(CFA_XSP16, literal(-13)))
        CFI (cfiCond71) V0 load(1, XDATA, add(CFA_XSP16, literal(-12)))
        CFI (cfiCond71) V1 load(1, XDATA, add(CFA_XSP16, literal(-11)))
        CFI (cfiCond71) V2 load(1, XDATA, add(CFA_XSP16, literal(-10)))
        CFI (cfiCond71) V3 load(1, XDATA, add(CFA_XSP16, literal(-9)))
        CFI (cfiCond71) V4 load(1, XDATA, add(CFA_XSP16, literal(-8)))
        CFI (cfiCond71) V5 load(1, XDATA, add(CFA_XSP16, literal(-7)))
        CFI (cfiCond71) R7 load(1, XDATA, add(CFA_XSP16, literal(-6)))
        CFI (cfiCond71) ?RET_LOW load(1, XDATA, add(CFA_XSP16, literal(-5)))
        CFI (cfiCond71) ?RET_HIGH load(1, XDATA, add(CFA_XSP16, literal(-4)))
        CFI (cfiCond71) ?BRET_EXT load(1, XDATA, add(CFA_XSP16, literal(-3)))
        CFI (cfiCond71) DPL0 load(1, XDATA, add(CFA_XSP16, literal(-2)))
        CFI (cfiCond71) DPH0 load(1, XDATA, add(CFA_XSP16, literal(-1)))
        CFI (cfiCond71) CFA_SP SP+0
        CFI (cfiCond71) CFA_XSP16 add(XSP16, 14)
        CFI Block cfiPicker72 Using cfiCommon1
        CFI (cfiPicker72) NoFunction
        CFI (cfiPicker72) Picker
        MOV     DPTR,#MsgBuf
        CLR     A
        LCALL   ?Subroutine8 & 0xFFFF
??CrossCallReturnLabel_33:
        MOV     A,#0xf
        CFI EndBlock cfiCond70
        CFI EndBlock cfiCond71
        CFI EndBlock cfiPicker72
        REQUIRE ??Subroutine13_0
        ; // Fall through to label ??Subroutine13_0

        RSEG BANKED_CODE:CODE:NOROOT(0)
??Subroutine13_0:
        CFI Block cfiCond73 Using cfiCommon0
        CFI NoFunction
        CFI Conditional ??CrossCallReturnLabel_36
        CFI R6 load(1, XDATA, add(CFA_XSP16, literal(-14)))
        CFI VB load(1, XDATA, add(CFA_XSP16, literal(-13)))
        CFI V0 load(1, XDATA, add(CFA_XSP16, literal(-12)))
        CFI V1 load(1, XDATA, add(CFA_XSP16, literal(-11)))
        CFI V2 load(1, XDATA, add(CFA_XSP16, literal(-10)))
        CFI V3 load(1, XDATA, add(CFA_XSP16, literal(-9)))
        CFI V4 load(1, XDATA, add(CFA_XSP16, literal(-8)))
        CFI V5 load(1, XDATA, add(CFA_XSP16, literal(-7)))
        CFI R7 load(1, XDATA, add(CFA_XSP16, literal(-6)))
        CFI ?RET_LOW load(1, XDATA, add(CFA_XSP16, literal(-5)))
        CFI ?RET_HIGH load(1, XDATA, add(CFA_XSP16, literal(-4)))
        CFI ?BRET_EXT load(1, XDATA, add(CFA_XSP16, literal(-3)))
        CFI DPL0 load(1, XDATA, add(CFA_XSP16, literal(-2)))
        CFI DPH0 load(1, XDATA, add(CFA_XSP16, literal(-1)))
        CFI CFA_SP SP+0
        CFI CFA_XSP16 add(XSP16, 14)
        CFI Block cfiCond74 Using cfiCommon0
        CFI (cfiCond74) NoFunction
        CFI (cfiCond74) Conditional ??CrossCallReturnLabel_37
        CFI (cfiCond74) R6 load(1, XDATA, add(CFA_XSP16, literal(-14)))
        CFI (cfiCond74) VB load(1, XDATA, add(CFA_XSP16, literal(-13)))
        CFI (cfiCond74) V0 load(1, XDATA, add(CFA_XSP16, literal(-12)))
        CFI (cfiCond74) V1 load(1, XDATA, add(CFA_XSP16, literal(-11)))
        CFI (cfiCond74) V2 load(1, XDATA, add(CFA_XSP16, literal(-10)))
        CFI (cfiCond74) V3 load(1, XDATA, add(CFA_XSP16, literal(-9)))
        CFI (cfiCond74) V4 load(1, XDATA, add(CFA_XSP16, literal(-8)))
        CFI (cfiCond74) V5 load(1, XDATA, add(CFA_XSP16, literal(-7)))
        CFI (cfiCond74) R7 load(1, XDATA, add(CFA_XSP16, literal(-6)))
        CFI (cfiCond74) ?RET_LOW load(1, XDATA, add(CFA_XSP16, literal(-5)))
        CFI (cfiCond74) ?RET_HIGH load(1, XDATA, add(CFA_XSP16, literal(-4)))
        CFI (cfiCond74) ?BRET_EXT load(1, XDATA, add(CFA_XSP16, literal(-3)))
        CFI (cfiCond74) DPL0 load(1, XDATA, add(CFA_XSP16, literal(-2)))
        CFI (cfiCond74) DPH0 load(1, XDATA, add(CFA_XSP16, literal(-1)))
        CFI (cfiCond74) CFA_SP SP+0
        CFI (cfiCond74) CFA_XSP16 add(XSP16, 14)
        CFI Block cfiCond75 Using cfiCommon0
        CFI (cfiCond75) NoFunction
        CFI (cfiCond75) Conditional ??CrossCallReturnLabel_38
        CFI (cfiCond75) R6 load(1, XDATA, add(CFA_XSP16, literal(-14)))
        CFI (cfiCond75) VB load(1, XDATA, add(CFA_XSP16, literal(-13)))
        CFI (cfiCond75) V0 load(1, XDATA, add(CFA_XSP16, literal(-12)))
        CFI (cfiCond75) V1 load(1, XDATA, add(CFA_XSP16, literal(-11)))
        CFI (cfiCond75) V2 load(1, XDATA, add(CFA_XSP16, literal(-10)))
        CFI (cfiCond75) V3 load(1, XDATA, add(CFA_XSP16, literal(-9)))
        CFI (cfiCond75) V4 load(1, XDATA, add(CFA_XSP16, literal(-8)))
        CFI (cfiCond75) V5 load(1, XDATA, add(CFA_XSP16, literal(-7)))
        CFI (cfiCond75) R7 load(1, XDATA, add(CFA_XSP16, literal(-6)))
        CFI (cfiCond75) ?RET_LOW load(1, XDATA, add(CFA_XSP16, literal(-5)))
        CFI (cfiCond75) ?RET_HIGH load(1, XDATA, add(CFA_XSP16, literal(-4)))
        CFI (cfiCond75) ?BRET_EXT load(1, XDATA, add(CFA_XSP16, literal(-3)))
        CFI (cfiCond75) DPL0 load(1, XDATA, add(CFA_XSP16, literal(-2)))
        CFI (cfiCond75) DPH0 load(1, XDATA, add(CFA_XSP16, literal(-1)))
        CFI (cfiCond75) CFA_SP SP+0
        CFI (cfiCond75) CFA_XSP16 add(XSP16, 14)
        CFI Block cfiCond76 Using cfiCommon0
        CFI (cfiCond76) NoFunction
        CFI (cfiCond76) Conditional ??CrossCallReturnLabel_34
        CFI (cfiCond76) R6 load(1, XDATA, add(CFA_XSP16, literal(-14)))
        CFI (cfiCond76) VB load(1, XDATA, add(CFA_XSP16, literal(-13)))
        CFI (cfiCond76) V0 load(1, XDATA, add(CFA_XSP16, literal(-12)))
        CFI (cfiCond76) V1 load(1, XDATA, add(CFA_XSP16, literal(-11)))
        CFI (cfiCond76) V2 load(1, XDATA, add(CFA_XSP16, literal(-10)))
        CFI (cfiCond76) V3 load(1, XDATA, add(CFA_XSP16, literal(-9)))
        CFI (cfiCond76) V4 load(1, XDATA, add(CFA_XSP16, literal(-8)))
        CFI (cfiCond76) V5 load(1, XDATA, add(CFA_XSP16, literal(-7)))
        CFI (cfiCond76) R7 load(1, XDATA, add(CFA_XSP16, literal(-6)))
        CFI (cfiCond76) ?RET_LOW load(1, XDATA, add(CFA_XSP16, literal(-5)))
        CFI (cfiCond76) ?RET_HIGH load(1, XDATA, add(CFA_XSP16, literal(-4)))
        CFI (cfiCond76) ?BRET_EXT load(1, XDATA, add(CFA_XSP16, literal(-3)))
        CFI (cfiCond76) DPL0 load(1, XDATA, add(CFA_XSP16, literal(-2)))
        CFI (cfiCond76) DPH0 load(1, XDATA, add(CFA_XSP16, literal(-1)))
        CFI (cfiCond76) CFA_SP SP+0
        CFI (cfiCond76) CFA_XSP16 add(XSP16, 14)
        CFI Block cfiCond77 Using cfiCommon0
        CFI (cfiCond77) NoFunction
        CFI (cfiCond77) Conditional ??CrossCallReturnLabel_35
        CFI (cfiCond77) R6 load(1, XDATA, add(CFA_XSP16, literal(-14)))
        CFI (cfiCond77) VB load(1, XDATA, add(CFA_XSP16, literal(-13)))
        CFI (cfiCond77) V0 load(1, XDATA, add(CFA_XSP16, literal(-12)))
        CFI (cfiCond77) V1 load(1, XDATA, add(CFA_XSP16, literal(-11)))
        CFI (cfiCond77) V2 load(1, XDATA, add(CFA_XSP16, literal(-10)))
        CFI (cfiCond77) V3 load(1, XDATA, add(CFA_XSP16, literal(-9)))
        CFI (cfiCond77) V4 load(1, XDATA, add(CFA_XSP16, literal(-8)))
        CFI (cfiCond77) V5 load(1, XDATA, add(CFA_XSP16, literal(-7)))
        CFI (cfiCond77) R7 load(1, XDATA, add(CFA_XSP16, literal(-6)))
        CFI (cfiCond77) ?RET_LOW load(1, XDATA, add(CFA_XSP16, literal(-5)))
        CFI (cfiCond77) ?RET_HIGH load(1, XDATA, add(CFA_XSP16, literal(-4)))
        CFI (cfiCond77) ?BRET_EXT load(1, XDATA, add(CFA_XSP16, literal(-3)))
        CFI (cfiCond77) DPL0 load(1, XDATA, add(CFA_XSP16, literal(-2)))
        CFI (cfiCond77) DPH0 load(1, XDATA, add(CFA_XSP16, literal(-1)))
        CFI (cfiCond77) CFA_SP SP+0
        CFI (cfiCond77) CFA_XSP16 add(XSP16, 14)
        CFI Block cfiPicker78 Using cfiCommon1
        CFI (cfiPicker78) NoFunction
        CFI (cfiPicker78) Picker
        MOVX    @DPTR,A
        ; Setup parameters for call to function EnddeviceApp_SendP2PMessage
        ; Setup parameters for call to function EnddeviceApp_SendP2PMessage
        ; Setup parameters for call to function EnddeviceApp_SendP2PMessage
        ; Setup parameters for call to function EnddeviceApp_SendP2PMessage
        ; Setup parameters for call to function EnddeviceApp_SendP2PMessage
        MOV     ?V0 + 0,#MsgBuf & 0xff
        MOV     ?V0 + 1,#(MsgBuf >> 8) & 0xff
        MOV     R0,#?V0 + 0
        RET
        CFI EndBlock cfiCond73
        CFI EndBlock cfiCond74
        CFI EndBlock cfiCond75
        CFI EndBlock cfiCond76
        CFI EndBlock cfiCond77
        CFI EndBlock cfiPicker78
//  356 

        RSEG BANKED_CODE:CODE:NOROOT(0)
//  357  void Enddevice_Init_NV(void)
Enddevice_Init_NV:
        CFI Block cfiBlock79 Using cfiCommon0
        CFI Function Enddevice_Init_NV
        CODE
//  358  {
        FUNCALL Enddevice_Init_NV, osal_nv_item_init
        LOCFRAME ISTACK, 0, STACK
        LOCFRAME PSTACK, 0, STACK
        LOCFRAME XSTACK, 12, STACK
        LOCFRAME IOVERLAY, 0, STATIC
        LOCFRAME DOVERLAY, 0, STATIC
        ARGFRAME ISTACK, 0, STACK
        ARGFRAME PSTACK, 0, STACK
        ARGFRAME XSTACK, 12, STACK
        ARGFRAME IOVERLAY, 0, STATIC
        ARGFRAME DOVERLAY, 0, STATIC
        FUNCALL Enddevice_Init_NV, osal_nv_write
        LOCFRAME ISTACK, 0, STACK
        LOCFRAME PSTACK, 0, STACK
        LOCFRAME XSTACK, 14, STACK
        LOCFRAME IOVERLAY, 0, STATIC
        LOCFRAME DOVERLAY, 0, STATIC
        ARGFRAME ISTACK, 0, STACK
        ARGFRAME PSTACK, 0, STACK
        ARGFRAME XSTACK, 14, STACK
        ARGFRAME IOVERLAY, 0, STATIC
        ARGFRAME DOVERLAY, 0, STATIC
        FUNCALL Enddevice_Init_NV, osal_nv_item_init
        LOCFRAME ISTACK, 0, STACK
        LOCFRAME PSTACK, 0, STACK
        LOCFRAME XSTACK, 12, STACK
        LOCFRAME IOVERLAY, 0, STATIC
        LOCFRAME DOVERLAY, 0, STATIC
        ARGFRAME ISTACK, 0, STACK
        ARGFRAME PSTACK, 0, STACK
        ARGFRAME XSTACK, 12, STACK
        ARGFRAME IOVERLAY, 0, STATIC
        ARGFRAME DOVERLAY, 0, STATIC
        FUNCALL Enddevice_Init_NV, osal_nv_read
        LOCFRAME ISTACK, 0, STACK
        LOCFRAME PSTACK, 0, STACK
        LOCFRAME XSTACK, 14, STACK
        LOCFRAME IOVERLAY, 0, STATIC
        LOCFRAME DOVERLAY, 0, STATIC
        ARGFRAME ISTACK, 0, STACK
        ARGFRAME PSTACK, 0, STACK
        ARGFRAME XSTACK, 14, STACK
        ARGFRAME IOVERLAY, 0, STATIC
        ARGFRAME DOVERLAY, 0, STATIC
        FUNCALL Enddevice_Init_NV, osal_nv_item_init
        LOCFRAME ISTACK, 0, STACK
        LOCFRAME PSTACK, 0, STACK
        LOCFRAME XSTACK, 12, STACK
        LOCFRAME IOVERLAY, 0, STATIC
        LOCFRAME DOVERLAY, 0, STATIC
        ARGFRAME ISTACK, 0, STACK
        ARGFRAME PSTACK, 0, STACK
        ARGFRAME XSTACK, 12, STACK
        ARGFRAME IOVERLAY, 0, STATIC
        ARGFRAME DOVERLAY, 0, STATIC
        FUNCALL Enddevice_Init_NV, osal_nv_write
        LOCFRAME ISTACK, 0, STACK
        LOCFRAME PSTACK, 0, STACK
        LOCFRAME XSTACK, 14, STACK
        LOCFRAME IOVERLAY, 0, STATIC
        LOCFRAME DOVERLAY, 0, STATIC
        ARGFRAME ISTACK, 0, STACK
        ARGFRAME PSTACK, 0, STACK
        ARGFRAME XSTACK, 14, STACK
        ARGFRAME IOVERLAY, 0, STATIC
        ARGFRAME DOVERLAY, 0, STATIC
        FUNCALL Enddevice_Init_NV, osal_nv_item_init
        LOCFRAME ISTACK, 0, STACK
        LOCFRAME PSTACK, 0, STACK
        LOCFRAME XSTACK, 12, STACK
        LOCFRAME IOVERLAY, 0, STATIC
        LOCFRAME DOVERLAY, 0, STATIC
        ARGFRAME ISTACK, 0, STACK
        ARGFRAME PSTACK, 0, STACK
        ARGFRAME XSTACK, 12, STACK
        ARGFRAME IOVERLAY, 0, STATIC
        ARGFRAME DOVERLAY, 0, STATIC
        FUNCALL Enddevice_Init_NV, osal_nv_read
        LOCFRAME ISTACK, 0, STACK
        LOCFRAME PSTACK, 0, STACK
        LOCFRAME XSTACK, 14, STACK
        LOCFRAME IOVERLAY, 0, STATIC
        LOCFRAME DOVERLAY, 0, STATIC
        ARGFRAME ISTACK, 0, STACK
        ARGFRAME PSTACK, 0, STACK
        ARGFRAME XSTACK, 14, STACK
        ARGFRAME IOVERLAY, 0, STATIC
        ARGFRAME DOVERLAY, 0, STATIC
        FUNCALL Enddevice_Init_NV, osal_nv_item_init
        LOCFRAME ISTACK, 0, STACK
        LOCFRAME PSTACK, 0, STACK
        LOCFRAME XSTACK, 12, STACK
        LOCFRAME IOVERLAY, 0, STATIC
        LOCFRAME DOVERLAY, 0, STATIC
        ARGFRAME ISTACK, 0, STACK
        ARGFRAME PSTACK, 0, STACK
        ARGFRAME XSTACK, 12, STACK
        ARGFRAME IOVERLAY, 0, STATIC
        ARGFRAME DOVERLAY, 0, STATIC
        FUNCALL Enddevice_Init_NV, osal_nv_write
        LOCFRAME ISTACK, 0, STACK
        LOCFRAME PSTACK, 0, STACK
        LOCFRAME XSTACK, 14, STACK
        LOCFRAME IOVERLAY, 0, STATIC
        LOCFRAME DOVERLAY, 0, STATIC
        ARGFRAME ISTACK, 0, STACK
        ARGFRAME PSTACK, 0, STACK
        ARGFRAME XSTACK, 14, STACK
        ARGFRAME IOVERLAY, 0, STATIC
        ARGFRAME DOVERLAY, 0, STATIC
        FUNCALL Enddevice_Init_NV, osal_nv_item_init
        LOCFRAME ISTACK, 0, STACK
        LOCFRAME PSTACK, 0, STACK
        LOCFRAME XSTACK, 12, STACK
        LOCFRAME IOVERLAY, 0, STATIC
        LOCFRAME DOVERLAY, 0, STATIC
        ARGFRAME ISTACK, 0, STACK
        ARGFRAME PSTACK, 0, STACK
        ARGFRAME XSTACK, 12, STACK
        ARGFRAME IOVERLAY, 0, STATIC
        ARGFRAME DOVERLAY, 0, STATIC
        FUNCALL Enddevice_Init_NV, osal_nv_read
        LOCFRAME ISTACK, 0, STACK
        LOCFRAME PSTACK, 0, STACK
        LOCFRAME XSTACK, 14, STACK
        LOCFRAME IOVERLAY, 0, STATIC
        LOCFRAME DOVERLAY, 0, STATIC
        ARGFRAME ISTACK, 0, STACK
        ARGFRAME PSTACK, 0, STACK
        ARGFRAME XSTACK, 14, STACK
        ARGFRAME IOVERLAY, 0, STATIC
        ARGFRAME DOVERLAY, 0, STATIC
        MOV     A,#-0xa
        LCALL   ?BANKED_ENTER_XDATA
        CFI DPH0 load(1, XDATA, add(CFA_XSP16, literal(-1)))
        CFI DPL0 load(1, XDATA, add(CFA_XSP16, literal(-2)))
        CFI ?BRET_EXT load(1, XDATA, add(CFA_XSP16, literal(-3)))
        CFI ?RET_HIGH load(1, XDATA, add(CFA_XSP16, literal(-4)))
        CFI ?RET_LOW load(1, XDATA, add(CFA_XSP16, literal(-5)))
        CFI R7 load(1, XDATA, add(CFA_XSP16, literal(-6)))
        CFI V1 load(1, XDATA, add(CFA_XSP16, literal(-7)))
        CFI V0 load(1, XDATA, add(CFA_XSP16, literal(-8)))
        CFI VB load(1, XDATA, add(CFA_XSP16, literal(-9)))
        CFI R6 load(1, XDATA, add(CFA_XSP16, literal(-10)))
        CFI CFA_SP SP+0
        CFI CFA_XSP16 add(XSP16, 10)
        ; Saved register size: 10
        ; Auto size: 0
//  359      /***********************************************************************
//  360       *
//  361       *  Load MyDeviceId from the NV if exist ,write MyDeviceId if not exist
//  362       *
//  363       *************************************************************************/
//  364       // the item didn't exist and was initialized successfully
//  365       if(osal_nv_item_init(MY_DEVICEID_NV,1,NULL) == NV_ITEM_UNINIT)
        ; Setup parameters for call to function osal_nv_item_init
        CLR     A
        MOV     ?V0 + 0,A
        MOV     ?V0 + 1,A
        MOV     R0,#?V0 + 0
        LCALL   ?PUSH_XSTACK_I_TWO
        CFI CFA_XSP16 add(XSP16, 12)
        LCALL   ?Subroutine4 & 0xFFFF
??CrossCallReturnLabel_39:
        LCALL   ?DEALLOC_XSTACK8
        CFI CFA_XSP16 add(XSP16, 10)
        MOV     A,R1
        XRL     A,#0x9
        JNZ     ??Enddevice_Init_NV_0
//  366       {
//  367         osal_nv_write(MY_DEVICEID_NV,0,1,&MyDeviceId); // write the item
        ; Setup parameters for call to function osal_nv_write
        MOV     ?V0 + 0,#MyDeviceId & 0xff
        MOV     ?V0 + 1,#(MyDeviceId >> 8) & 0xff
        MOV     R0,#?V0 + 0
        LCALL   ?PUSH_XSTACK_I_TWO
        CFI CFA_XSP16 add(XSP16, 12)
        MOV     ?V0 + 0,#0x1
        MOV     ?V0 + 1,#0x0
        MOV     R0,#?V0 + 0
        LCALL   ?PUSH_XSTACK_I_TWO
        CFI CFA_XSP16 add(XSP16, 14)
        MOV     R4,#0x0
        MOV     R5,#0x0
        MOV     R2,#0x1
        MOV     R3,#0x4
        LCALL   ??osal_nv_write?relay
        SJMP    ??Enddevice_Init_NV_1
        CFI CFA_XSP16 add(XSP16, 10)
//  368       }
//  369       // the item existed already
//  370       else if(osal_nv_item_init(MY_DEVICEID_NV,1,NULL) == SUCCESS)
??Enddevice_Init_NV_0:
        ; Setup parameters for call to function osal_nv_item_init
        MOV     R0,#?V0 + 0
        LCALL   ?PUSH_XSTACK_I_TWO
        CFI CFA_XSP16 add(XSP16, 12)
        LCALL   ?Subroutine4 & 0xFFFF
??CrossCallReturnLabel_40:
        LCALL   ?DEALLOC_XSTACK8
        CFI CFA_XSP16 add(XSP16, 10)
        MOV     A,R1
        JNZ     ??Enddevice_Init_NV_2
//  371       {
//  372         osal_nv_read(MY_DEVICEID_NV,0,1,&MyDeviceId);// load the item to the RAM
        ; Setup parameters for call to function osal_nv_read
        MOV     ?V0 + 0,#MyDeviceId & 0xff
        MOV     ?V0 + 1,#(MyDeviceId >> 8) & 0xff
        MOV     R0,#?V0 + 0
        LCALL   ?PUSH_XSTACK_I_TWO
        CFI CFA_XSP16 add(XSP16, 12)
        MOV     ?V0 + 0,#0x1
        MOV     ?V0 + 1,#0x0
        MOV     R0,#?V0 + 0
        LCALL   ?PUSH_XSTACK_I_TWO
        CFI CFA_XSP16 add(XSP16, 14)
        MOV     R4,#0x0
        MOV     R5,#0x0
        MOV     R2,#0x1
        MOV     R3,#0x4
        LCALL   ??osal_nv_read?relay
??Enddevice_Init_NV_1:
        MOV     A,#0x4
        LCALL   ?DEALLOC_XSTACK8
        CFI CFA_XSP16 add(XSP16, 10)
//  373       }
//  374       else;
//  375       
//  376       
//  377       /***********************************************************************
//  378       *
//  379       *  Load SetRM_ from the NV if exist ,write MyDeviceId if not exist
//  380       *
//  381       *************************************************************************/
//  382       if(osal_nv_item_init(SET_RM_TEMP_NV,1,NULL) == NV_ITEM_UNINIT)
??Enddevice_Init_NV_2:
        ; Setup parameters for call to function osal_nv_item_init
        CLR     A
        MOV     ?V0 + 0,A
        MOV     R0,#?V0 + 0
        LCALL   ?PUSH_XSTACK_I_TWO
        CFI CFA_XSP16 add(XSP16, 12)
        MOV     R4,#0x1
        MOV     R5,#0x0
        MOV     R2,#0x2
        LCALL   ??Subroutine14_0 & 0xFFFF
??CrossCallReturnLabel_41:
        LCALL   ?DEALLOC_XSTACK8
        CFI CFA_XSP16 add(XSP16, 10)
        MOV     A,R1
        XRL     A,#0x9
        JNZ     ??Enddevice_Init_NV_3
//  383       {
//  384         osal_nv_write(SET_RM_TEMP_NV,0,1,&SetRM_Temperature); // write the item
        ; Setup parameters for call to function osal_nv_write
        MOV     ?V0 + 0,#SetRM_Temperature & 0xff
        MOV     ?V0 + 1,#(SetRM_Temperature >> 8) & 0xff
        MOV     R0,#?V0 + 0
        LCALL   ?PUSH_XSTACK_I_TWO
        CFI CFA_XSP16 add(XSP16, 12)
        MOV     ?V0 + 0,#0x1
        MOV     ?V0 + 1,#0x0
        MOV     R0,#?V0 + 0
        LCALL   ?PUSH_XSTACK_I_TWO
        CFI CFA_XSP16 add(XSP16, 14)
        MOV     R4,#0x0
        MOV     R5,#0x0
        MOV     R2,#0x2
        MOV     R3,#0x4
        LCALL   ??osal_nv_write?relay
        SJMP    ??Enddevice_Init_NV_4
        CFI CFA_XSP16 add(XSP16, 10)
//  385       }
//  386       // the item existed already
//  387       else if(osal_nv_item_init(SET_RM_TEMP_NV,1,NULL) == SUCCESS)
??Enddevice_Init_NV_3:
        ; Setup parameters for call to function osal_nv_item_init
        MOV     R0,#?V0 + 0
        LCALL   ?PUSH_XSTACK_I_TWO
        CFI CFA_XSP16 add(XSP16, 12)
        MOV     R4,#0x1
        MOV     R5,#0x0
        MOV     R2,#0x2
        LCALL   ??Subroutine14_0 & 0xFFFF
??CrossCallReturnLabel_42:
        LCALL   ?DEALLOC_XSTACK8
        CFI CFA_XSP16 add(XSP16, 10)
        MOV     A,R1
        JNZ     ??Enddevice_Init_NV_5
//  388       {
//  389         osal_nv_read(SET_RM_TEMP_NV,0,1,&SetRM_Temperature);// load the item to the RAM
        ; Setup parameters for call to function osal_nv_read
        MOV     ?V0 + 0,#SetRM_Temperature & 0xff
        MOV     ?V0 + 1,#(SetRM_Temperature >> 8) & 0xff
        MOV     R0,#?V0 + 0
        LCALL   ?PUSH_XSTACK_I_TWO
        CFI CFA_XSP16 add(XSP16, 12)
        MOV     ?V0 + 0,#0x1
        MOV     ?V0 + 1,#0x0
        MOV     R0,#?V0 + 0
        LCALL   ?PUSH_XSTACK_I_TWO
        CFI CFA_XSP16 add(XSP16, 14)
        MOV     R4,#0x0
        MOV     R5,#0x0
        MOV     R2,#0x2
        MOV     R3,#0x4
        LCALL   ??osal_nv_read?relay
??Enddevice_Init_NV_4:
        MOV     A,#0x4
        LCALL   ?DEALLOC_XSTACK8
        CFI CFA_XSP16 add(XSP16, 10)
//  390       }
//  391       else;
//  392       
//  393     
//  394       /***********************************************************************
//  395       *
//  396       *  Load MyDeviceId from the NV if exist ,write MyDeviceId if not exist
//  397       *
//  398       *************************************************************************/
//  399       if(osal_nv_item_init(SET_FL_TEMP_NV,1,NULL) == NV_ITEM_UNINIT)
??Enddevice_Init_NV_5:
        ; Setup parameters for call to function osal_nv_item_init
        CLR     A
        MOV     ?V0 + 0,A
        MOV     R0,#?V0 + 0
        LCALL   ?PUSH_XSTACK_I_TWO
        CFI CFA_XSP16 add(XSP16, 12)
        MOV     R4,#0x1
        MOV     R5,#0x0
        MOV     R2,#0x3
        LCALL   ??Subroutine14_0 & 0xFFFF
??CrossCallReturnLabel_43:
        LCALL   ?DEALLOC_XSTACK8
        CFI CFA_XSP16 add(XSP16, 10)
        MOV     A,R1
        XRL     A,#0x9
        JNZ     ??Enddevice_Init_NV_6
//  400       {
//  401         osal_nv_write(SET_FL_TEMP_NV,0,1,&SetFL_Temperature); // write the item
        ; Setup parameters for call to function osal_nv_write
        MOV     ?V0 + 0,#SetFL_Temperature & 0xff
        MOV     ?V0 + 1,#(SetFL_Temperature >> 8) & 0xff
        MOV     R0,#?V0 + 0
        LCALL   ?PUSH_XSTACK_I_TWO
        CFI CFA_XSP16 add(XSP16, 12)
        MOV     ?V0 + 0,#0x1
        MOV     ?V0 + 1,#0x0
        MOV     R0,#?V0 + 0
        LCALL   ?PUSH_XSTACK_I_TWO
        CFI CFA_XSP16 add(XSP16, 14)
        MOV     R4,#0x0
        MOV     R5,#0x0
        MOV     R2,#0x3
        MOV     R3,#0x4
        LCALL   ??osal_nv_write?relay
        SJMP    ??Enddevice_Init_NV_7
        CFI CFA_XSP16 add(XSP16, 10)
//  402       }
//  403       // the item existed already
//  404       else if(osal_nv_item_init(SET_FL_TEMP_NV,1,NULL) == SUCCESS)
??Enddevice_Init_NV_6:
        ; Setup parameters for call to function osal_nv_item_init
        MOV     R0,#?V0 + 0
        LCALL   ?PUSH_XSTACK_I_TWO
        CFI CFA_XSP16 add(XSP16, 12)
        MOV     R4,#0x1
        MOV     R5,#0x0
        MOV     R2,#0x3
        LCALL   ??Subroutine14_0 & 0xFFFF
??CrossCallReturnLabel_44:
        LCALL   ?DEALLOC_XSTACK8
        CFI CFA_XSP16 add(XSP16, 10)
        MOV     A,R1
        JNZ     ??Enddevice_Init_NV_8
//  405       {
//  406         osal_nv_read(SET_FL_TEMP_NV,0,1,&SetFL_Temperature);// load the item to the RAM
        ; Setup parameters for call to function osal_nv_read
        MOV     ?V0 + 0,#SetFL_Temperature & 0xff
        MOV     ?V0 + 1,#(SetFL_Temperature >> 8) & 0xff
        MOV     R0,#?V0 + 0
        LCALL   ?PUSH_XSTACK_I_TWO
        CFI CFA_XSP16 add(XSP16, 12)
        MOV     ?V0 + 0,#0x1
        MOV     ?V0 + 1,#0x0
        MOV     R0,#?V0 + 0
        LCALL   ?PUSH_XSTACK_I_TWO
        CFI CFA_XSP16 add(XSP16, 14)
        MOV     R4,#0x0
        MOV     R5,#0x0
        MOV     R2,#0x3
        MOV     R3,#0x4
        LCALL   ??osal_nv_read?relay
??Enddevice_Init_NV_7:
        MOV     A,#0x4
        LCALL   ?DEALLOC_XSTACK8
        CFI CFA_XSP16 add(XSP16, 10)
//  407       }
//  408       else;
//  409  }
??Enddevice_Init_NV_8:
        MOV     R7,#0x2
        LJMP    ?BANKED_LEAVE_XDATA
        CFI EndBlock cfiBlock79

        RSEG BANKED_CODE:CODE:NOROOT(0)
?Subroutine4:
        CFI Block cfiCond80 Using cfiCommon0
        CFI NoFunction
        CFI Conditional ??CrossCallReturnLabel_39
        CFI R6 load(1, XDATA, add(CFA_XSP16, literal(-10)))
        CFI VB load(1, XDATA, add(CFA_XSP16, literal(-9)))
        CFI V0 load(1, XDATA, add(CFA_XSP16, literal(-8)))
        CFI V1 load(1, XDATA, add(CFA_XSP16, literal(-7)))
        CFI R7 load(1, XDATA, add(CFA_XSP16, literal(-6)))
        CFI ?RET_LOW load(1, XDATA, add(CFA_XSP16, literal(-5)))
        CFI ?RET_HIGH load(1, XDATA, add(CFA_XSP16, literal(-4)))
        CFI ?BRET_EXT load(1, XDATA, add(CFA_XSP16, literal(-3)))
        CFI DPL0 load(1, XDATA, add(CFA_XSP16, literal(-2)))
        CFI DPH0 load(1, XDATA, add(CFA_XSP16, literal(-1)))
        CFI CFA_SP SP+0
        CFI CFA_XSP16 add(XSP16, 12)
        CFI Block cfiCond81 Using cfiCommon0
        CFI (cfiCond81) NoFunction
        CFI (cfiCond81) Conditional ??CrossCallReturnLabel_40
        CFI (cfiCond81) R6 load(1, XDATA, add(CFA_XSP16, literal(-10)))
        CFI (cfiCond81) VB load(1, XDATA, add(CFA_XSP16, literal(-9)))
        CFI (cfiCond81) V0 load(1, XDATA, add(CFA_XSP16, literal(-8)))
        CFI (cfiCond81) V1 load(1, XDATA, add(CFA_XSP16, literal(-7)))
        CFI (cfiCond81) R7 load(1, XDATA, add(CFA_XSP16, literal(-6)))
        CFI (cfiCond81) ?RET_LOW load(1, XDATA, add(CFA_XSP16, literal(-5)))
        CFI (cfiCond81) ?RET_HIGH load(1, XDATA, add(CFA_XSP16, literal(-4)))
        CFI (cfiCond81) ?BRET_EXT load(1, XDATA, add(CFA_XSP16, literal(-3)))
        CFI (cfiCond81) DPL0 load(1, XDATA, add(CFA_XSP16, literal(-2)))
        CFI (cfiCond81) DPH0 load(1, XDATA, add(CFA_XSP16, literal(-1)))
        CFI (cfiCond81) CFA_SP SP+0
        CFI (cfiCond81) CFA_XSP16 add(XSP16, 12)
        CFI Block cfiPicker82 Using cfiCommon1
        CFI (cfiPicker82) NoFunction
        CFI (cfiPicker82) Picker
        MOV     R4,#0x1
        MOV     R5,#0x0
        MOV     R2,#0x1
        CFI EndBlock cfiCond80
        CFI EndBlock cfiCond81
        CFI EndBlock cfiPicker82
        REQUIRE ??Subroutine14_0
        ; // Fall through to label ??Subroutine14_0

        RSEG BANKED_CODE:CODE:NOROOT(0)
??Subroutine14_0:
        CFI Block cfiCond83 Using cfiCommon0
        CFI NoFunction
        CFI Conditional ??CrossCallReturnLabel_41
        CFI R6 load(1, XDATA, add(CFA_XSP16, literal(-10)))
        CFI VB load(1, XDATA, add(CFA_XSP16, literal(-9)))
        CFI V0 load(1, XDATA, add(CFA_XSP16, literal(-8)))
        CFI V1 load(1, XDATA, add(CFA_XSP16, literal(-7)))
        CFI R7 load(1, XDATA, add(CFA_XSP16, literal(-6)))
        CFI ?RET_LOW load(1, XDATA, add(CFA_XSP16, literal(-5)))
        CFI ?RET_HIGH load(1, XDATA, add(CFA_XSP16, literal(-4)))
        CFI ?BRET_EXT load(1, XDATA, add(CFA_XSP16, literal(-3)))
        CFI DPL0 load(1, XDATA, add(CFA_XSP16, literal(-2)))
        CFI DPH0 load(1, XDATA, add(CFA_XSP16, literal(-1)))
        CFI CFA_SP SP+0
        CFI CFA_XSP16 add(XSP16, 12)
        CFI Block cfiCond84 Using cfiCommon0
        CFI (cfiCond84) NoFunction
        CFI (cfiCond84) Conditional ??CrossCallReturnLabel_42
        CFI (cfiCond84) R6 load(1, XDATA, add(CFA_XSP16, literal(-10)))
        CFI (cfiCond84) VB load(1, XDATA, add(CFA_XSP16, literal(-9)))
        CFI (cfiCond84) V0 load(1, XDATA, add(CFA_XSP16, literal(-8)))
        CFI (cfiCond84) V1 load(1, XDATA, add(CFA_XSP16, literal(-7)))
        CFI (cfiCond84) R7 load(1, XDATA, add(CFA_XSP16, literal(-6)))
        CFI (cfiCond84) ?RET_LOW load(1, XDATA, add(CFA_XSP16, literal(-5)))
        CFI (cfiCond84) ?RET_HIGH load(1, XDATA, add(CFA_XSP16, literal(-4)))
        CFI (cfiCond84) ?BRET_EXT load(1, XDATA, add(CFA_XSP16, literal(-3)))
        CFI (cfiCond84) DPL0 load(1, XDATA, add(CFA_XSP16, literal(-2)))
        CFI (cfiCond84) DPH0 load(1, XDATA, add(CFA_XSP16, literal(-1)))
        CFI (cfiCond84) CFA_SP SP+0
        CFI (cfiCond84) CFA_XSP16 add(XSP16, 12)
        CFI Block cfiCond85 Using cfiCommon0
        CFI (cfiCond85) NoFunction
        CFI (cfiCond85) Conditional ??CrossCallReturnLabel_43
        CFI (cfiCond85) R6 load(1, XDATA, add(CFA_XSP16, literal(-10)))
        CFI (cfiCond85) VB load(1, XDATA, add(CFA_XSP16, literal(-9)))
        CFI (cfiCond85) V0 load(1, XDATA, add(CFA_XSP16, literal(-8)))
        CFI (cfiCond85) V1 load(1, XDATA, add(CFA_XSP16, literal(-7)))
        CFI (cfiCond85) R7 load(1, XDATA, add(CFA_XSP16, literal(-6)))
        CFI (cfiCond85) ?RET_LOW load(1, XDATA, add(CFA_XSP16, literal(-5)))
        CFI (cfiCond85) ?RET_HIGH load(1, XDATA, add(CFA_XSP16, literal(-4)))
        CFI (cfiCond85) ?BRET_EXT load(1, XDATA, add(CFA_XSP16, literal(-3)))
        CFI (cfiCond85) DPL0 load(1, XDATA, add(CFA_XSP16, literal(-2)))
        CFI (cfiCond85) DPH0 load(1, XDATA, add(CFA_XSP16, literal(-1)))
        CFI (cfiCond85) CFA_SP SP+0
        CFI (cfiCond85) CFA_XSP16 add(XSP16, 12)
        CFI Block cfiCond86 Using cfiCommon0
        CFI (cfiCond86) NoFunction
        CFI (cfiCond86) Conditional ??CrossCallReturnLabel_44
        CFI (cfiCond86) R6 load(1, XDATA, add(CFA_XSP16, literal(-10)))
        CFI (cfiCond86) VB load(1, XDATA, add(CFA_XSP16, literal(-9)))
        CFI (cfiCond86) V0 load(1, XDATA, add(CFA_XSP16, literal(-8)))
        CFI (cfiCond86) V1 load(1, XDATA, add(CFA_XSP16, literal(-7)))
        CFI (cfiCond86) R7 load(1, XDATA, add(CFA_XSP16, literal(-6)))
        CFI (cfiCond86) ?RET_LOW load(1, XDATA, add(CFA_XSP16, literal(-5)))
        CFI (cfiCond86) ?RET_HIGH load(1, XDATA, add(CFA_XSP16, literal(-4)))
        CFI (cfiCond86) ?BRET_EXT load(1, XDATA, add(CFA_XSP16, literal(-3)))
        CFI (cfiCond86) DPL0 load(1, XDATA, add(CFA_XSP16, literal(-2)))
        CFI (cfiCond86) DPH0 load(1, XDATA, add(CFA_XSP16, literal(-1)))
        CFI (cfiCond86) CFA_SP SP+0
        CFI (cfiCond86) CFA_XSP16 add(XSP16, 12)
        CFI Block cfiCond87 Using cfiCommon0
        CFI (cfiCond87) NoFunction
        CFI (cfiCond87) Conditional ??CrossCallReturnLabel_39
        CFI (cfiCond87) R6 load(1, XDATA, add(CFA_XSP16, literal(-10)))
        CFI (cfiCond87) VB load(1, XDATA, add(CFA_XSP16, literal(-9)))
        CFI (cfiCond87) V0 load(1, XDATA, add(CFA_XSP16, literal(-8)))
        CFI (cfiCond87) V1 load(1, XDATA, add(CFA_XSP16, literal(-7)))
        CFI (cfiCond87) R7 load(1, XDATA, add(CFA_XSP16, literal(-6)))
        CFI (cfiCond87) ?RET_LOW load(1, XDATA, add(CFA_XSP16, literal(-5)))
        CFI (cfiCond87) ?RET_HIGH load(1, XDATA, add(CFA_XSP16, literal(-4)))
        CFI (cfiCond87) ?BRET_EXT load(1, XDATA, add(CFA_XSP16, literal(-3)))
        CFI (cfiCond87) DPL0 load(1, XDATA, add(CFA_XSP16, literal(-2)))
        CFI (cfiCond87) DPH0 load(1, XDATA, add(CFA_XSP16, literal(-1)))
        CFI (cfiCond87) CFA_SP SP+0
        CFI (cfiCond87) CFA_XSP16 add(XSP16, 12)
        CFI Block cfiCond88 Using cfiCommon0
        CFI (cfiCond88) NoFunction
        CFI (cfiCond88) Conditional ??CrossCallReturnLabel_40
        CFI (cfiCond88) R6 load(1, XDATA, add(CFA_XSP16, literal(-10)))
        CFI (cfiCond88) VB load(1, XDATA, add(CFA_XSP16, literal(-9)))
        CFI (cfiCond88) V0 load(1, XDATA, add(CFA_XSP16, literal(-8)))
        CFI (cfiCond88) V1 load(1, XDATA, add(CFA_XSP16, literal(-7)))
        CFI (cfiCond88) R7 load(1, XDATA, add(CFA_XSP16, literal(-6)))
        CFI (cfiCond88) ?RET_LOW load(1, XDATA, add(CFA_XSP16, literal(-5)))
        CFI (cfiCond88) ?RET_HIGH load(1, XDATA, add(CFA_XSP16, literal(-4)))
        CFI (cfiCond88) ?BRET_EXT load(1, XDATA, add(CFA_XSP16, literal(-3)))
        CFI (cfiCond88) DPL0 load(1, XDATA, add(CFA_XSP16, literal(-2)))
        CFI (cfiCond88) DPH0 load(1, XDATA, add(CFA_XSP16, literal(-1)))
        CFI (cfiCond88) CFA_SP SP+0
        CFI (cfiCond88) CFA_XSP16 add(XSP16, 12)
        CFI Block cfiPicker89 Using cfiCommon1
        CFI (cfiPicker89) NoFunction
        CFI (cfiPicker89) Picker
        MOV     R3,#0x4
        LCALL   ??osal_nv_item_init?relay
        MOV     A,#0x2
        RET
        CFI EndBlock cfiCond83
        CFI EndBlock cfiCond84
        CFI EndBlock cfiCond85
        CFI EndBlock cfiCond86
        CFI EndBlock cfiCond87
        CFI EndBlock cfiCond88
        CFI EndBlock cfiPicker89

        RSEG BANK_RELAYS:CODE:REORDER:NOROOT(0)
??EnddeviceApp_Init?relay:
        LCALL   ?BDISPATCH
        DATA
        DC24    EnddeviceApp_Init

        RSEG BANK_RELAYS:CODE:REORDER:NOROOT(0)
??EnddeviceApp_ProcessEvent?relay:
        LCALL   ?BDISPATCH
        DATA
        DC24    EnddeviceApp_ProcessEvent

        RSEG BANK_RELAYS:CODE:REORDER:NOROOT(0)
??Enddevice_Init_NV?relay:
        LCALL   ?BDISPATCH
        DATA
        DC24    Enddevice_Init_NV

        RSEG XDATA_ROM_C:CONST:REORDER:NOROOT(0)
        DATA8
`?<Constant "Group 0">`:
        DB "Group 0"

        END
// 
// 1 358 bytes in segment BANKED_CODE
//    18 bytes in segment BANK_RELAYS
//     5 bytes in segment SFR_AN
//     8 bytes in segment XDATA_ROM_C
// 
// 1 376 bytes of CODE  memory
//     8 bytes of CONST memory
//     0 bytes of DATA  memory (+ 5 bytes shared)
//
//Errors: none
//Warnings: none
