///////////////////////////////////////////////////////////////////////////////
//                                                                            /
// IAR C/C++ Compiler V8.10.1.10194/W32 for 8051        21/Apr/2015  17:17:50 /
// Copyright 2004-2011 IAR Systems AB.                                        /
//                                                                            /
//    Core               =  plain                                             /
//    Code model         =  banked                                            /
//    Data model         =  large                                             /
//    Calling convention =  xdata reentrant                                   /
//    Constant location  =  data_rom                                          /
//    Dptr setup         =  1,16                                              /
//    Source file        =  C:\Users\William\Desktop\±œ“µ…Ëº∆\SRC\EndDevice-P /
//                          roject-for-editing\Projects\zstack\MyEnddevice\En /
//                          dDevice\Source\EnddeviceSampleADC.c               /
//    Command line       =  -f C:\Users\William\Desktop\±œ“µ…Ëº∆\SRC\EndDevic /
//                          e-Project-for-editing\Projects\zstack\MyEnddevice /
//                          \EndDevice\CC2530DB\..\..\..\Tools\CC2530DB\f8wEn /
//                          dev.cfg (-DCPU32MHZ -DROOT=__near_func            /
//                          -DMAC_CFG_TX_DATA_MAX=3 -DMAC_CFG_TX_MAX=6        /
//                          -DMAC_CFG_RX_MAX=3) -f C:\Users\William\Desktop\± /
//                          œ“µ…Ëº∆\SRC\EndDevice-Project-for-editing\Project /
//                          s\zstack\MyEnddevice\EndDevice\CC2530DB\..\..\..\ /
//                          Tools\CC2530DB\f8wConfig.cfg (-DZIGBEEPRO         /
//                          -DSECURE=0 -DZG_SECURE_DYNAMIC=0 -DREFLECTOR      /
//                          -DDEFAULT_CHANLIST=0x02000000                     /
//                          -DZDAPP_CONFIG_PAN_ID=0xFFFF                      /
//                          -DNWK_START_DELAY=100 -DEXTENDED_JOINING_RANDOM_M /
//                          ASK=0x007F -DBEACON_REQUEST_DELAY=100             /
//                          -DBEACON_REQ_DELAY_MASK=0x00FF                    /
//                          -DLINK_STATUS_JITTER_MASK=0x007F                  /
//                          -DROUTE_EXPIRY_TIME=30 -DAPSC_ACK_WAIT_DURATION_P /
//                          OLLED=3000 -DNWK_INDIRECT_MSG_TIMEOUT=7           /
//                          -DMAX_RREQ_ENTRIES=8 -DAPSC_MAX_FRAME_RETRIES=3   /
//                          -DNWK_MAX_DATA_RETRIES=2                          /
//                          -DMAX_POLL_FAILURE_RETRIES=2 -DMAX_BCAST=9        /
//                          -DAPS_MAX_GROUPS=16 -DMAX_RTG_ENTRIES=40          /
//                          -DNWK_MAX_BINDING_ENTRIES=4                       /
//                          -DMAX_BINDING_CLUSTER_IDS=4                       /
//                          "-DDEFAULT_KEY={0x01, 0x03, 0x05, 0x07, 0x09,     /
//                          0x0B, 0x0D, 0x0F, 0x00, 0x02, 0x04, 0x06, 0x08,   /
//                          0x0A, 0x0C, 0x0D}" -DMAC_MAX_FRAME_SIZE=116       /
//                          -DZDNWKMGR_MIN_TRANSMISSIONS=20 "-DCONST=const    /
//                          __code" -DGENERIC=__generic                       /
//                          -DRFD_RCVC_ALWAYS_ON=FALSE -DPOLL_RATE=1000       /
//                          -DQUEUED_POLL_RATE=100 -DRESPONSE_POLL_RATE=100)  /
//                          -DREJOIN_POLL_RATE=440 C:\Users\William\Desktop\± /
//                          œ“µ…Ëº∆\SRC\EndDevice-Project-for-editing\Project /
//                          s\zstack\MyEnddevice\EndDevice\Source\EnddeviceSa /
//                          mpleADC.c -D NWK_AUTO_POLL -D NV_RESTORE=1 -D     /
//                          xZTOOL_P1 -D xMT_TASK -D xMT_SYS_FUNC -D          /
//                          xMT_ZDO_FUNC -D xLCD_SUPPORTED=DEBUG -lC          /
//                          C:\Users\William\Desktop\±œ“µ…Ëº∆\SRC\EndDevice-P /
//                          roject-for-editing\Projects\zstack\MyEnddevice\En /
//                          dDevice\CC2530DB\EndDeviceEB\List\ -lA            /
//                          C:\Users\William\Desktop\±œ“µ…Ëº∆\SRC\EndDevice-P /
//                          roject-for-editing\Projects\zstack\MyEnddevice\En /
//                          dDevice\CC2530DB\EndDeviceEB\List\                /
//                          --diag_suppress Pe001,Pa010 -o                    /
//                          C:\Users\William\Desktop\±œ“µ…Ëº∆\SRC\EndDevice-P /
//                          roject-for-editing\Projects\zstack\MyEnddevice\En /
//                          dDevice\CC2530DB\EndDeviceEB\Obj\ -e              /
//                          --no_code_motion --debug --core=plain             /
//                          --dptr=16,1 --data_model=large                    /
//                          --code_model=banked --calling_convention=xdata_re /
//                          entrant --place_constants=data_rom                /
//                          --nr_virtual_regs 16 -I                           /
//                          C:\Users\William\Desktop\±œ“µ…Ëº∆\SRC\EndDevice-P /
//                          roject-for-editing\Projects\zstack\MyEnddevice\En /
//                          dDevice\CC2530DB\ -I C:\Users\William\Desktop\±œ“ /
//                          µ…Ëº∆\SRC\EndDevice-Project-for-editing\Projects\ /
//                          zstack\MyEnddevice\EndDevice\CC2530DB\..\Source\  /
//                          -I C:\Users\William\Desktop\±œ“µ…Ëº∆\SRC\EndDevic /
//                          e-Project-for-editing\Projects\zstack\MyEnddevice /
//                          \EndDevice\CC2530DB\..\..\..\ZMain\TI2530DB\ -I   /
//                          C:\Users\William\Desktop\±œ“µ…Ëº∆\SRC\EndDevice-P /
//                          roject-for-editing\Projects\zstack\MyEnddevice\En /
//                          dDevice\CC2530DB\..\..\..\..\..\Components\hal\in /
//                          clude\ -I C:\Users\William\Desktop\±œ“µ…Ëº∆\SRC\E /
//                          ndDevice-Project-for-editing\Projects\zstack\MyEn /
//                          ddevice\EndDevice\CC2530DB\..\..\..\..\..\Compone /
//                          nts\hal\target\CC2530EB\ -I                       /
//                          C:\Users\William\Desktop\±œ“µ…Ëº∆\SRC\EndDevice-P /
//                          roject-for-editing\Projects\zstack\MyEnddevice\En /
//                          dDevice\CC2530DB\..\..\..\..\..\Components\mac\in /
//                          clude\ -I C:\Users\William\Desktop\±œ“µ…Ëº∆\SRC\E /
//                          ndDevice-Project-for-editing\Projects\zstack\MyEn /
//                          ddevice\EndDevice\CC2530DB\..\..\..\..\..\Compone /
//                          nts\mac\high_level\ -I C:\Users\William\Desktop\± /
//                          œ“µ…Ëº∆\SRC\EndDevice-Project-for-editing\Project /
//                          s\zstack\MyEnddevice\EndDevice\CC2530DB\..\..\..\ /
//                          ..\..\Components\mac\low_level\srf04\ -I          /
//                          C:\Users\William\Desktop\±œ“µ…Ëº∆\SRC\EndDevice-P /
//                          roject-for-editing\Projects\zstack\MyEnddevice\En /
//                          dDevice\CC2530DB\..\..\..\..\..\Components\mac\lo /
//                          w_level\srf04\single_chip\ -I                     /
//                          C:\Users\William\Desktop\±œ“µ…Ëº∆\SRC\EndDevice-P /
//                          roject-for-editing\Projects\zstack\MyEnddevice\En /
//                          dDevice\CC2530DB\..\..\..\..\..\Components\mt\    /
//                          -I C:\Users\William\Desktop\±œ“µ…Ëº∆\SRC\EndDevic /
//                          e-Project-for-editing\Projects\zstack\MyEnddevice /
//                          \EndDevice\CC2530DB\..\..\..\..\..\Components\osa /
//                          l\include\ -I C:\Users\William\Desktop\±œ“µ…Ëº∆\S /
//                          RC\EndDevice-Project-for-editing\Projects\zstack\ /
//                          MyEnddevice\EndDevice\CC2530DB\..\..\..\..\..\Com /
//                          ponents\services\saddr\ -I                        /
//                          C:\Users\William\Desktop\±œ“µ…Ëº∆\SRC\EndDevice-P /
//                          roject-for-editing\Projects\zstack\MyEnddevice\En /
//                          dDevice\CC2530DB\..\..\..\..\..\Components\servic /
//                          es\sdata\ -I C:\Users\William\Desktop\±œ“µ…Ëº∆\SR /
//                          C\EndDevice-Project-for-editing\Projects\zstack\M /
//                          yEnddevice\EndDevice\CC2530DB\..\..\..\..\..\Comp /
//                          onents\stack\af\ -I C:\Users\William\Desktop\±œ“µ /
//                          …Ëº∆\SRC\EndDevice-Project-for-editing\Projects\z /
//                          stack\MyEnddevice\EndDevice\CC2530DB\..\..\..\..\ /
//                          ..\Components\stack\nwk\ -I                       /
//                          C:\Users\William\Desktop\±œ“µ…Ëº∆\SRC\EndDevice-P /
//                          roject-for-editing\Projects\zstack\MyEnddevice\En /
//                          dDevice\CC2530DB\..\..\..\..\..\Components\stack\ /
//                          sapi\ -I C:\Users\William\Desktop\±œ“µ…Ëº∆\SRC\En /
//                          dDevice-Project-for-editing\Projects\zstack\MyEnd /
//                          device\EndDevice\CC2530DB\..\..\..\..\..\Componen /
//                          ts\stack\sec\ -I C:\Users\William\Desktop\±œ“µ…Ëº /
//                          ∆\SRC\EndDevice-Project-for-editing\Projects\zsta /
//                          ck\MyEnddevice\EndDevice\CC2530DB\..\..\..\..\..\ /
//                          Components\stack\sys\ -I                          /
//                          C:\Users\William\Desktop\±œ“µ…Ëº∆\SRC\EndDevice-P /
//                          roject-for-editing\Projects\zstack\MyEnddevice\En /
//                          dDevice\CC2530DB\..\..\..\..\..\Components\stack\ /
//                          zdo\ -I C:\Users\William\Desktop\±œ“µ…Ëº∆\SRC\End /
//                          Device-Project-for-editing\Projects\zstack\MyEndd /
//                          evice\EndDevice\CC2530DB\..\..\..\..\..\Component /
//                          s\zmac\ -I C:\Users\William\Desktop\±œ“µ…Ëº∆\SRC\ /
//                          EndDevice-Project-for-editing\Projects\zstack\MyE /
//                          nddevice\EndDevice\CC2530DB\..\..\..\..\..\Compon /
//                          ents\zmac\f8w\ -Ohz                               /
//    List file          =  C:\Users\William\Desktop\±œ“µ…Ëº∆\SRC\EndDevice-P /
//                          roject-for-editing\Projects\zstack\MyEnddevice\En /
//                          dDevice\CC2530DB\EndDeviceEB\List\EnddeviceSample /
//                          ADC.s51                                           /
//                                                                            /
//                                                                            /
///////////////////////////////////////////////////////////////////////////////

        NAME EnddeviceSampleADC

        RTMODEL "__SystemLibrary", "CLib"
        RTMODEL "__calling_convention", "xdata_reentrant"
        RTMODEL "__code_model", "banked"
        RTMODEL "__core", "plain"
        RTMODEL "__data_model", "large"
        RTMODEL "__dptr_size", "16"
        RTMODEL "__extended_stack", "disabled"
        RTMODEL "__location_for_constants", "data"
        RTMODEL "__number_of_dptrs", "1"
        RTMODEL "__rt_version", "1"

        RSEG DOVERLAY:DATA:NOROOT(0)
        RSEG IOVERLAY:IDATA:NOROOT(0)
        RSEG ISTACK:IDATA:NOROOT(0)
        RSEG PSTACK:XDATA:NOROOT(0)
        RSEG XSTACK:XDATA:NOROOT(0)

        EXTERN ?BANKED_ENTER_XDATA
        EXTERN ?BANKED_LEAVE_XDATA
        EXTERN ?BDISPATCH
        EXTERN ?L_ADD
        EXTERN ?L_MOV_X
        EXTERN ?L_SUB
        EXTERN ?UL_DIV_MOD
        EXTERN ?V0

        PUBLIC ??TemperADCSampleAndAverage?relay
        FUNCTION ??TemperADCSampleAndAverage?relay,0203H
        PUBLIC TemperADCSampleAndAverage
        FUNCTION TemperADCSampleAndAverage,021203H
        ARGFRAME XSTACK, 0, STACK
        LOCFRAME XSTACK, 24, STACK
        PUBWEAK __Constant_0
        
        CFI Names cfiNames0
        CFI StackFrame CFA_SP SP IDATA
        CFI StackFrame CFA_PSP16 PSP16 XDATA
        CFI StackFrame CFA_XSP16 XSP16 XDATA
        CFI StaticOverlayFrame CFA_IOVERLAY IOVERLAY
        CFI StaticOverlayFrame CFA_DOVERLAY DOVERLAY
        CFI Resource `PSW.CY`:1, `B.BR0`:1, `B.BR1`:1, `B.BR2`:1, `B.BR3`:1
        CFI Resource `B.BR4`:1, `B.BR5`:1, `B.BR6`:1, `B.BR7`:1, `VB.BR8`:1
        CFI Resource `VB.BR9`:1, `VB.BR10`:1, `VB.BR11`:1, `VB.BR12`:1
        CFI Resource `VB.BR13`:1, `VB.BR14`:1, `VB.BR15`:1, VB:8, B:8, A:8
        CFI Resource PSW:8, DPL0:8, DPH0:8, R0:8, R1:8, R2:8, R3:8, R4:8, R5:8
        CFI Resource R6:8, R7:8, V0:8, V1:8, V2:8, V3:8, V4:8, V5:8, V6:8, V7:8
        CFI Resource V8:8, V9:8, V10:8, V11:8, V12:8, V13:8, V14:8, V15:8, SP:8
        CFI Resource PSPH:8, PSPL:8, PSP16:16, XSPH:8, XSPL:8, XSP16:16
        CFI VirtualResource ?RET:24
        CFI Resource ?BRET_EXT:8
        CFI VirtualResource ?RET_HIGH:8, ?RET_LOW:8
        CFI ResourceParts PSP16 PSPH, PSPL
        CFI ResourceParts XSP16 XSPH, XSPL
        CFI ResourceParts ?RET ?BRET_EXT, ?RET_HIGH, ?RET_LOW
        CFI EndNames cfiNames0
        
        CFI Common cfiCommon0 Using cfiNames0
        CFI CodeAlign 1
        CFI DataAlign -1
        CFI ReturnAddress ?RET CODE
        CFI CFA_DOVERLAY Used
        CFI CFA_IOVERLAY Used
        CFI CFA_SP SP+-3
        CFI CFA_PSP16 PSP16+0
        CFI CFA_XSP16 XSP16+0
        CFI `PSW.CY` SameValue
        CFI `B.BR0` SameValue
        CFI `B.BR1` SameValue
        CFI `B.BR2` SameValue
        CFI `B.BR3` SameValue
        CFI `B.BR4` SameValue
        CFI `B.BR5` SameValue
        CFI `B.BR6` SameValue
        CFI `B.BR7` SameValue
        CFI `VB.BR8` SameValue
        CFI `VB.BR9` SameValue
        CFI `VB.BR10` SameValue
        CFI `VB.BR11` SameValue
        CFI `VB.BR12` SameValue
        CFI `VB.BR13` SameValue
        CFI `VB.BR14` SameValue
        CFI `VB.BR15` SameValue
        CFI VB SameValue
        CFI B Undefined
        CFI A Undefined
        CFI PSW SameValue
        CFI DPL0 SameValue
        CFI DPH0 SameValue
        CFI R0 Undefined
        CFI R1 Undefined
        CFI R2 Undefined
        CFI R3 Undefined
        CFI R4 Undefined
        CFI R5 Undefined
        CFI R6 SameValue
        CFI R7 SameValue
        CFI V0 SameValue
        CFI V1 SameValue
        CFI V2 SameValue
        CFI V3 SameValue
        CFI V4 SameValue
        CFI V5 SameValue
        CFI V6 SameValue
        CFI V7 SameValue
        CFI V8 SameValue
        CFI V9 SameValue
        CFI V10 SameValue
        CFI V11 SameValue
        CFI V12 SameValue
        CFI V13 SameValue
        CFI V14 SameValue
        CFI V15 SameValue
        CFI PSPH Undefined
        CFI PSPL Undefined
        CFI XSPH Undefined
        CFI XSPL Undefined
        CFI ?RET Concat
        CFI ?BRET_EXT Frame(CFA_SP, 3)
        CFI ?RET_HIGH Frame(CFA_SP, 2)
        CFI ?RET_LOW Frame(CFA_SP, 1)
        CFI EndCommon cfiCommon0
        
HalSampleFloorTemperatureADC SYMBOL "HalSampleFloorTemperatureADC"
HalSampleRoomTemperatureADC SYMBOL "HalSampleRoomTemperatureADC"
??HalSampleFloorTemperatureADC?relay SYMBOL "?relay", HalSampleFloorTemperatureADC
??HalSampleRoomTemperatureADC?relay SYMBOL "?relay", HalSampleRoomTemperatureADC
TemperADCSampleAndAverage SYMBOL "TemperADCSampleAndAverage"
??TemperADCSampleAndAverage?relay SYMBOL "?relay", TemperADCSampleAndAverage

        EXTERN HalSampleFloorTemperatureADC
        FUNCTION HalSampleFloorTemperatureADC,0202H
        ARGFRAME ISTACK, 0, STACK
        ARGFRAME PSTACK, 0, STACK
        ARGFRAME XSTACK, 24, STACK
        ARGFRAME IOVERLAY, 0, STATIC
        ARGFRAME DOVERLAY, 0, STATIC
        EXTERN HalSampleRoomTemperatureADC
        FUNCTION HalSampleRoomTemperatureADC,0202H
        ARGFRAME ISTACK, 0, STACK
        ARGFRAME PSTACK, 0, STACK
        ARGFRAME XSTACK, 24, STACK
        ARGFRAME IOVERLAY, 0, STATIC
        ARGFRAME DOVERLAY, 0, STATIC
        EXTERN ??HalSampleFloorTemperatureADC?relay
        FUNCTION ??HalSampleFloorTemperatureADC?relay,00H
        EXTERN ??HalSampleRoomTemperatureADC?relay
        FUNCTION ??HalSampleRoomTemperatureADC?relay,00H

// C:\Users\William\Desktop\±œ“µ…Ëº∆\SRC\EndDevice-Project-for-editing\Projects\zstack\MyEnddevice\EndDevice\Source\EnddeviceSampleADC.c
//    1 
//    2 #include "EnddeviceVariable.h"
//    3 #include "EnddeviceSampleADC.h"
//    4 #include "hal_adc.h"
//    5 
//    6 /*********************************************************************
//    7  * @fn      TemperADCSampleAndAverage
//    8  *
//    9  * @brief   This function sample the ADC sampletimes and return the average value
//   10  *
//   11  * @param   sampletimes-the times sampled, 
//   12  *           
//   13  *          chanel-which kind of ADC value you want to return
//   14  *
//   15  *          0-room temperature,1-floor temperature
//   16  *
//   17  * @return  the average value
//   18  *******************************************************************************/
//   19 

        RSEG BANKED_CODE:CODE:NOROOT(0)
//   20 uint16 TemperADCSampleAndAverage(uint8 sampletimes,uint8 chanel)
TemperADCSampleAndAverage:
        CFI Block cfiBlock0 Using cfiCommon0
        CFI Function TemperADCSampleAndAverage
        CODE
//   21  {
        FUNCALL TemperADCSampleAndAverage, HalSampleFloorTemperatureADC
        LOCFRAME ISTACK, 0, STACK
        LOCFRAME PSTACK, 0, STACK
        LOCFRAME XSTACK, 24, STACK
        LOCFRAME IOVERLAY, 0, STATIC
        LOCFRAME DOVERLAY, 0, STATIC
        ARGFRAME ISTACK, 0, STACK
        ARGFRAME PSTACK, 0, STACK
        ARGFRAME XSTACK, 24, STACK
        ARGFRAME IOVERLAY, 0, STATIC
        ARGFRAME DOVERLAY, 0, STATIC
        FUNCALL TemperADCSampleAndAverage, HalSampleRoomTemperatureADC
        LOCFRAME ISTACK, 0, STACK
        LOCFRAME PSTACK, 0, STACK
        LOCFRAME XSTACK, 24, STACK
        LOCFRAME IOVERLAY, 0, STATIC
        LOCFRAME DOVERLAY, 0, STATIC
        ARGFRAME ISTACK, 0, STACK
        ARGFRAME PSTACK, 0, STACK
        ARGFRAME XSTACK, 24, STACK
        ARGFRAME IOVERLAY, 0, STATIC
        ARGFRAME DOVERLAY, 0, STATIC
        MOV     A,#-0x18
        LCALL   ?BANKED_ENTER_XDATA
        CFI DPH0 load(1, XDATA, add(CFA_XSP16, literal(-1)))
        CFI DPL0 load(1, XDATA, add(CFA_XSP16, literal(-2)))
        CFI ?BRET_EXT load(1, XDATA, add(CFA_XSP16, literal(-3)))
        CFI ?RET_HIGH load(1, XDATA, add(CFA_XSP16, literal(-4)))
        CFI ?RET_LOW load(1, XDATA, add(CFA_XSP16, literal(-5)))
        CFI R7 load(1, XDATA, add(CFA_XSP16, literal(-6)))
        CFI V15 load(1, XDATA, add(CFA_XSP16, literal(-7)))
        CFI V14 load(1, XDATA, add(CFA_XSP16, literal(-8)))
        CFI V13 load(1, XDATA, add(CFA_XSP16, literal(-9)))
        CFI V12 load(1, XDATA, add(CFA_XSP16, literal(-10)))
        CFI V11 load(1, XDATA, add(CFA_XSP16, literal(-11)))
        CFI V10 load(1, XDATA, add(CFA_XSP16, literal(-12)))
        CFI V9 load(1, XDATA, add(CFA_XSP16, literal(-13)))
        CFI V8 load(1, XDATA, add(CFA_XSP16, literal(-14)))
        CFI V7 load(1, XDATA, add(CFA_XSP16, literal(-15)))
        CFI V6 load(1, XDATA, add(CFA_XSP16, literal(-16)))
        CFI V5 load(1, XDATA, add(CFA_XSP16, literal(-17)))
        CFI V4 load(1, XDATA, add(CFA_XSP16, literal(-18)))
        CFI V3 load(1, XDATA, add(CFA_XSP16, literal(-19)))
        CFI V2 load(1, XDATA, add(CFA_XSP16, literal(-20)))
        CFI V1 load(1, XDATA, add(CFA_XSP16, literal(-21)))
        CFI V0 load(1, XDATA, add(CFA_XSP16, literal(-22)))
        CFI VB load(1, XDATA, add(CFA_XSP16, literal(-23)))
        CFI R6 load(1, XDATA, add(CFA_XSP16, literal(-24)))
        CFI CFA_SP SP+0
        CFI CFA_XSP16 add(XSP16, 24)
        ; Saved register size: 24
        ; Auto size: 0
        MOV     ?V0 + 6,R1
        MOV     A,R2
        MOV     R6,A
//   22         uint8 i = 0;
//   23         uint32 Result_Sum = 0; // average result
        MOV     DPTR,#__Constant_0
        MOV     R0,#?V0 + 12
        LCALL   ?L_MOV_X
//   24         uint16 Result_Max = 0x0000;
        MOV     ?V0 + 0,#0x0
        MOV     ?V0 + 1,#0x0
//   25         uint16 Result_Min = 0xffff;
        MOV     ?V0 + 4,#-0x1
        MOV     ?V0 + 5,#-0x1
//   26         uint16 ADC_Result = 0x0000;
        MOV     R2,#0x0
        MOV     R3,#0x0
//   27         for(i = 0; i < sampletimes; i++)
        MOV     R7,#0x0
        SJMP    ??TemperADCSampleAndAverage_0
//   28         {
//   29           if(chanel == 0)
//   30           {
//   31             ADC_Result = HalSampleRoomTemperatureADC();
//   32           }
//   33           else if(chanel == 1)
??TemperADCSampleAndAverage_1:
        MOV     A,#0x1
        XRL     A,R6
        JNZ     ??TemperADCSampleAndAverage_2
//   34           {
//   35             ADC_Result = HalSampleFloorTemperatureADC();
        ; Setup parameters for call to function HalSampleFloorTemperatureADC
        LCALL   ??HalSampleFloorTemperatureADC?relay
//   36           }
//   37           else;
//   38     /******************find the minium and maxium value of the RM ADC results**********/
//   39           if(ADC_Result < Result_Min)
??TemperADCSampleAndAverage_2:
        CLR     C
        MOV     A,R2
        SUBB    A,?V0 + 4
        MOV     A,R3
        SUBB    A,?V0 + 5
        JNC     ??TemperADCSampleAndAverage_3
//   40           {
//   41             Result_Min = ADC_Result;
        MOV     ?V0 + 4,R2
        MOV     ?V0 + 5,R3
//   42           }
//   43           if(ADC_Result > Result_Max)
??TemperADCSampleAndAverage_3:
        CLR     C
        MOV     A,?V0 + 0
        SUBB    A,R2
        MOV     A,?V0 + 1
        SUBB    A,R3
        JNC     ??TemperADCSampleAndAverage_4
//   44           {
//   45             Result_Max = ADC_Result;
        MOV     ?V0 + 0,R2
        MOV     ?V0 + 1,R3
//   46           } 
//   47           /******************find the minium and maxium value of the FL ADC results**********/ 
//   48           
//   49           Result_Sum += ADC_Result;
??TemperADCSampleAndAverage_4:
        MOV     ?V0 + 8,R2
        MOV     ?V0 + 9,R3
        CLR     A
        MOV     ?V0 + 10,A
        MOV     ?V0 + 11,A
        MOV     R0,#?V0 + 12
        MOV     R1,#?V0 + 8
        LCALL   ?L_ADD
        INC     R7
??TemperADCSampleAndAverage_0:
        MOV     A,R7
        CLR     C
        SUBB    A,?V0 + 6
        JNC     ??TemperADCSampleAndAverage_5
        MOV     A,R6
        JNZ     ??TemperADCSampleAndAverage_1
        ; Setup parameters for call to function HalSampleRoomTemperatureADC
        LCALL   ??HalSampleRoomTemperatureADC?relay
        SJMP    ??TemperADCSampleAndAverage_2
//   50         } 
//   51         
//   52         Result_Sum = Result_Sum - Result_Max - Result_Min;
//   53         Result_Sum /= (sampletimes - 2); // average result
//   54         return Result_Sum;
??TemperADCSampleAndAverage_5:
        CLR     A
        MOV     ?V0 + 2,A
        MOV     ?V0 + 3,A
        MOV     R0,#?V0 + 12
        MOV     R1,#?V0 + 0
        LCALL   ?L_SUB
        MOV     ?V0 + 0,?V0 + 4
        MOV     ?V0 + 1,?V0 + 5
        MOV     R0,#?V0 + 12
        MOV     R1,#?V0 + 0
        LCALL   ?L_SUB
        MOV     ?V0 + 0,?V0 + 6
        MOV     A,?V0 + 0
        ADD     A,#-0x2
        MOV     ?V0 + 0,A
        CLR     A
        ADDC    A,#-0x1
        MOV     ?V0 + 1,A
        RLC     A
        SUBB    A,0xE0 /* A   */
        MOV     ?V0 + 2,A
        MOV     ?V0 + 3,A
        MOV     R0,#?V0 + 12
        MOV     R1,#?V0 + 0
        LCALL   ?UL_DIV_MOD
        MOV     R2,?V0 + 12
        MOV     R3,?V0 + 13
        MOV     R7,#0x10
        LJMP    ?BANKED_LEAVE_XDATA
        CFI EndBlock cfiBlock0
//   55  }

        RSEG XDATA_ROM_C:CONST:REORDER:NOROOT(0)
        DATA32
__Constant_0:
        DD 0

        RSEG BANK_RELAYS:CODE:REORDER:NOROOT(0)
??TemperADCSampleAndAverage?relay:
        LCALL   ?BDISPATCH
        DATA
        DC24    TemperADCSampleAndAverage

        END
// 
// 164 bytes in segment BANKED_CODE
//   6 bytes in segment BANK_RELAYS
//   4 bytes in segment XDATA_ROM_C
// 
// 170 bytes of CODE  memory
//   0 bytes of CONST memory (+ 4 bytes shared)
//
//Errors: none
//Warnings: none
