///////////////////////////////////////////////////////////////////////////////
//                                                                            /
// IAR C/C++ Compiler V8.10.1.10194/W32 for 8051        20/Apr/2015  20:00:20 /
// Copyright 2004-2011 IAR Systems AB.                                        /
//                                                                            /
//    Core               =  plain                                             /
//    Code model         =  banked                                            /
//    Data model         =  large                                             /
//    Calling convention =  xdata reentrant                                   /
//    Constant location  =  data_rom                                          /
//    Dptr setup         =  1,16                                              /
//    Source file        =  C:\Users\William\Desktop\±œ“µ…Ëº∆\SRC\EndDevice   /
//                          Project for editing\Projects\zstack\MyEnddevice\E /
//                          ndDevice\Source\EnddeviceLCD.c                    /
//    Command line       =  -f "C:\Users\William\Desktop\±œ“µ…Ëº∆\SRC\EndDevi /
//                          ce Project for editing\Projects\zstack\MyEnddevic /
//                          e\EndDevice\CC2530DB\..\..\..\Tools\CC2530DB\f8wE /
//                          ndev.cfg" (-DCPU32MHZ -DROOT=__near_func          /
//                          -DMAC_CFG_TX_DATA_MAX=3 -DMAC_CFG_TX_MAX=6        /
//                          -DMAC_CFG_RX_MAX=3) -f "C:\Users\William\Desktop\ /
//                          ±œ“µ…Ëº∆\SRC\EndDevice Project for                /
//                          editing\Projects\zstack\MyEnddevice\EndDevice\CC2 /
//                          530DB\..\..\..\Tools\CC2530DB\f8wConfig.cfg"      /
//                          (-DZIGBEEPRO -DSECURE=0 -DZG_SECURE_DYNAMIC=0     /
//                          -DREFLECTOR -DDEFAULT_CHANLIST=0x02000000         /
//                          -DZDAPP_CONFIG_PAN_ID=0xFFFF                      /
//                          -DNWK_START_DELAY=100 -DEXTENDED_JOINING_RANDOM_M /
//                          ASK=0x007F -DBEACON_REQUEST_DELAY=100             /
//                          -DBEACON_REQ_DELAY_MASK=0x00FF                    /
//                          -DLINK_STATUS_JITTER_MASK=0x007F                  /
//                          -DROUTE_EXPIRY_TIME=30 -DAPSC_ACK_WAIT_DURATION_P /
//                          OLLED=3000 -DNWK_INDIRECT_MSG_TIMEOUT=7           /
//                          -DMAX_RREQ_ENTRIES=8 -DAPSC_MAX_FRAME_RETRIES=3   /
//                          -DNWK_MAX_DATA_RETRIES=2                          /
//                          -DMAX_POLL_FAILURE_RETRIES=2 -DMAX_BCAST=9        /
//                          -DAPS_MAX_GROUPS=16 -DMAX_RTG_ENTRIES=40          /
//                          -DNWK_MAX_BINDING_ENTRIES=4                       /
//                          -DMAX_BINDING_CLUSTER_IDS=4                       /
//                          "-DDEFAULT_KEY={0x01, 0x03, 0x05, 0x07, 0x09,     /
//                          0x0B, 0x0D, 0x0F, 0x00, 0x02, 0x04, 0x06, 0x08,   /
//                          0x0A, 0x0C, 0x0D}" -DMAC_MAX_FRAME_SIZE=116       /
//                          -DZDNWKMGR_MIN_TRANSMISSIONS=20 "-DCONST=const    /
//                          __code" -DGENERIC=__generic                       /
//                          -DRFD_RCVC_ALWAYS_ON=FALSE -DPOLL_RATE=1000       /
//                          -DQUEUED_POLL_RATE=100 -DRESPONSE_POLL_RATE=100)  /
//                          -DREJOIN_POLL_RATE=440 "C:\Users\William\Desktop\ /
//                          ±œ“µ…Ëº∆\SRC\EndDevice Project for                /
//                          editing\Projects\zstack\MyEnddevice\EndDevice\Sou /
//                          rce\EnddeviceLCD.c" -D NWK_AUTO_POLL -D           /
//                          NV_RESTORE=1 -D xZTOOL_P1 -D xMT_TASK -D          /
//                          xMT_SYS_FUNC -D xMT_ZDO_FUNC -D                   /
//                          xLCD_SUPPORTED=DEBUG -lC                          /
//                          "C:\Users\William\Desktop\±œ“µ…Ëº∆\SRC\EndDevice  /
//                          Project for editing\Projects\zstack\MyEnddevice\E /
//                          ndDevice\CC2530DB\EndDeviceEB\List\" -lA          /
//                          "C:\Users\William\Desktop\±œ“µ…Ëº∆\SRC\EndDevice  /
//                          Project for editing\Projects\zstack\MyEnddevice\E /
//                          ndDevice\CC2530DB\EndDeviceEB\List\"              /
//                          --diag_suppress Pe001,Pa010 -o                    /
//                          "C:\Users\William\Desktop\±œ“µ…Ëº∆\SRC\EndDevice  /
//                          Project for editing\Projects\zstack\MyEnddevice\E /
//                          ndDevice\CC2530DB\EndDeviceEB\Obj\" -e            /
//                          --no_code_motion --debug --core=plain             /
//                          --dptr=16,1 --data_model=large                    /
//                          --code_model=banked --calling_convention=xdata_re /
//                          entrant --place_constants=data_rom                /
//                          --nr_virtual_regs 16 -I                           /
//                          "C:\Users\William\Desktop\±œ“µ…Ëº∆\SRC\EndDevice  /
//                          Project for editing\Projects\zstack\MyEnddevice\E /
//                          ndDevice\CC2530DB\" -I "C:\Users\William\Desktop\ /
//                          ±œ“µ…Ëº∆\SRC\EndDevice Project for                /
//                          editing\Projects\zstack\MyEnddevice\EndDevice\CC2 /
//                          530DB\..\Source\" -I "C:\Users\William\Desktop\±œ /
//                          “µ…Ëº∆\SRC\EndDevice Project for                  /
//                          editing\Projects\zstack\MyEnddevice\EndDevice\CC2 /
//                          530DB\..\..\..\ZMain\TI2530DB\" -I                /
//                          "C:\Users\William\Desktop\±œ“µ…Ëº∆\SRC\EndDevice  /
//                          Project for editing\Projects\zstack\MyEnddevice\E /
//                          ndDevice\CC2530DB\..\..\..\..\..\Components\hal\i /
//                          nclude\" -I "C:\Users\William\Desktop\±œ“µ…Ëº∆\SR /
//                          C\EndDevice Project for                           /
//                          editing\Projects\zstack\MyEnddevice\EndDevice\CC2 /
//                          530DB\..\..\..\..\..\Components\hal\target\CC2530 /
//                          EB\" -I "C:\Users\William\Desktop\±œ“µ…Ëº∆\SRC\En /
//                          dDevice Project for editing\Projects\zstack\MyEnd /
//                          device\EndDevice\CC2530DB\..\..\..\..\..\Componen /
//                          ts\mac\include\" -I "C:\Users\William\Desktop\±œ“ /
//                          µ…Ëº∆\SRC\EndDevice Project for                   /
//                          editing\Projects\zstack\MyEnddevice\EndDevice\CC2 /
//                          530DB\..\..\..\..\..\Components\mac\high_level\"  /
//                          -I "C:\Users\William\Desktop\±œ“µ…Ëº∆\SRC\EndDevi /
//                          ce Project for editing\Projects\zstack\MyEnddevic /
//                          e\EndDevice\CC2530DB\..\..\..\..\..\Components\ma /
//                          c\low_level\srf04\" -I "C:\Users\William\Desktop\ /
//                          ±œ“µ…Ëº∆\SRC\EndDevice Project for                /
//                          editing\Projects\zstack\MyEnddevice\EndDevice\CC2 /
//                          530DB\..\..\..\..\..\Components\mac\low_level\srf /
//                          04\single_chip\" -I "C:\Users\William\Desktop\±œ“ /
//                          µ…Ëº∆\SRC\EndDevice Project for                   /
//                          editing\Projects\zstack\MyEnddevice\EndDevice\CC2 /
//                          530DB\..\..\..\..\..\Components\mt\" -I           /
//                          "C:\Users\William\Desktop\±œ“µ…Ëº∆\SRC\EndDevice  /
//                          Project for editing\Projects\zstack\MyEnddevice\E /
//                          ndDevice\CC2530DB\..\..\..\..\..\Components\osal\ /
//                          include\" -I "C:\Users\William\Desktop\±œ“µ…Ëº∆\S /
//                          RC\EndDevice Project for                          /
//                          editing\Projects\zstack\MyEnddevice\EndDevice\CC2 /
//                          530DB\..\..\..\..\..\Components\services\saddr\"  /
//                          -I "C:\Users\William\Desktop\±œ“µ…Ëº∆\SRC\EndDevi /
//                          ce Project for editing\Projects\zstack\MyEnddevic /
//                          e\EndDevice\CC2530DB\..\..\..\..\..\Components\se /
//                          rvices\sdata\" -I "C:\Users\William\Desktop\±œ“µ… /
//                          Ëº∆\SRC\EndDevice Project for                     /
//                          editing\Projects\zstack\MyEnddevice\EndDevice\CC2 /
//                          530DB\..\..\..\..\..\Components\stack\af\" -I     /
//                          "C:\Users\William\Desktop\±œ“µ…Ëº∆\SRC\EndDevice  /
//                          Project for editing\Projects\zstack\MyEnddevice\E /
//                          ndDevice\CC2530DB\..\..\..\..\..\Components\stack /
//                          \nwk\" -I "C:\Users\William\Desktop\±œ“µ…Ëº∆\SRC\ /
//                          EndDevice Project for editing\Projects\zstack\MyE /
//                          nddevice\EndDevice\CC2530DB\..\..\..\..\..\Compon /
//                          ents\stack\sapi\" -I "C:\Users\William\Desktop\±œ /
//                          “µ…Ëº∆\SRC\EndDevice Project for                  /
//                          editing\Projects\zstack\MyEnddevice\EndDevice\CC2 /
//                          530DB\..\..\..\..\..\Components\stack\sec\" -I    /
//                          "C:\Users\William\Desktop\±œ“µ…Ëº∆\SRC\EndDevice  /
//                          Project for editing\Projects\zstack\MyEnddevice\E /
//                          ndDevice\CC2530DB\..\..\..\..\..\Components\stack /
//                          \sys\" -I "C:\Users\William\Desktop\±œ“µ…Ëº∆\SRC\ /
//                          EndDevice Project for editing\Projects\zstack\MyE /
//                          nddevice\EndDevice\CC2530DB\..\..\..\..\..\Compon /
//                          ents\stack\zdo\" -I "C:\Users\William\Desktop\±œ“ /
//                          µ…Ëº∆\SRC\EndDevice Project for                   /
//                          editing\Projects\zstack\MyEnddevice\EndDevice\CC2 /
//                          530DB\..\..\..\..\..\Components\zmac\" -I         /
//                          "C:\Users\William\Desktop\±œ“µ…Ëº∆\SRC\EndDevice  /
//                          Project for editing\Projects\zstack\MyEnddevice\E /
//                          ndDevice\CC2530DB\..\..\..\..\..\Components\zmac\ /
//                          f8w\" -Ohz                                        /
//    List file          =  C:\Users\William\Desktop\±œ“µ…Ëº∆\SRC\EndDevice   /
//                          Project for editing\Projects\zstack\MyEnddevice\E /
//                          ndDevice\CC2530DB\EndDeviceEB\List\EnddeviceLCD.s /
//                          51                                                /
//                                                                            /
//                                                                            /
///////////////////////////////////////////////////////////////////////////////

        NAME EnddeviceLCD

        RTMODEL "__SystemLibrary", "CLib"
        RTMODEL "__calling_convention", "xdata_reentrant"
        RTMODEL "__code_model", "banked"
        RTMODEL "__core", "plain"
        RTMODEL "__data_model", "large"
        RTMODEL "__dptr_size", "16"
        RTMODEL "__extended_stack", "disabled"
        RTMODEL "__location_for_constants", "data"
        RTMODEL "__number_of_dptrs", "1"
        RTMODEL "__rt_version", "1"

        RSEG DOVERLAY:DATA:NOROOT(0)
        RSEG IOVERLAY:IDATA:NOROOT(0)
        RSEG ISTACK:IDATA:NOROOT(0)
        RSEG PSTACK:XDATA:NOROOT(0)
        RSEG XSTACK:XDATA:NOROOT(0)

        EXTERN ?BANKED_ENTER_XDATA
        EXTERN ?BANKED_LEAVE_XDATA
        EXTERN ?BDISPATCH
        EXTERN ?US_SHR
        EXTERN ?V0

        PUBLIC ??EnddeviceApp_HandleLCD?relay
        FUNCTION ??EnddeviceApp_HandleLCD?relay,0203H
        PUBLIC EnddeviceApp_HandleLCD
        FUNCTION EnddeviceApp_HandleLCD,021203H
        ARGFRAME XSTACK, 0, STACK
        LOCFRAME XSTACK, 12, STACK
        PUBWEAK _A_P1
        
        CFI Names cfiNames0
        CFI StackFrame CFA_SP SP IDATA
        CFI StackFrame CFA_PSP16 PSP16 XDATA
        CFI StackFrame CFA_XSP16 XSP16 XDATA
        CFI StaticOverlayFrame CFA_IOVERLAY IOVERLAY
        CFI StaticOverlayFrame CFA_DOVERLAY DOVERLAY
        CFI Resource `PSW.CY`:1, `B.BR0`:1, `B.BR1`:1, `B.BR2`:1, `B.BR3`:1
        CFI Resource `B.BR4`:1, `B.BR5`:1, `B.BR6`:1, `B.BR7`:1, `VB.BR8`:1
        CFI Resource `VB.BR9`:1, `VB.BR10`:1, `VB.BR11`:1, `VB.BR12`:1
        CFI Resource `VB.BR13`:1, `VB.BR14`:1, `VB.BR15`:1, VB:8, B:8, A:8
        CFI Resource PSW:8, DPL0:8, DPH0:8, R0:8, R1:8, R2:8, R3:8, R4:8, R5:8
        CFI Resource R6:8, R7:8, V0:8, V1:8, V2:8, V3:8, V4:8, V5:8, V6:8, V7:8
        CFI Resource V8:8, V9:8, V10:8, V11:8, V12:8, V13:8, V14:8, V15:8, SP:8
        CFI Resource PSPH:8, PSPL:8, PSP16:16, XSPH:8, XSPL:8, XSP16:16
        CFI VirtualResource ?RET:24
        CFI Resource ?BRET_EXT:8
        CFI VirtualResource ?RET_HIGH:8, ?RET_LOW:8
        CFI ResourceParts PSP16 PSPH, PSPL
        CFI ResourceParts XSP16 XSPH, XSPL
        CFI ResourceParts ?RET ?BRET_EXT, ?RET_HIGH, ?RET_LOW
        CFI EndNames cfiNames0
        
        CFI Common cfiCommon0 Using cfiNames0
        CFI CodeAlign 1
        CFI DataAlign -1
        CFI ReturnAddress ?RET CODE
        CFI CFA_DOVERLAY Used
        CFI CFA_IOVERLAY Used
        CFI CFA_SP SP+-3
        CFI CFA_PSP16 PSP16+0
        CFI CFA_XSP16 XSP16+0
        CFI `PSW.CY` SameValue
        CFI `B.BR0` SameValue
        CFI `B.BR1` SameValue
        CFI `B.BR2` SameValue
        CFI `B.BR3` SameValue
        CFI `B.BR4` SameValue
        CFI `B.BR5` SameValue
        CFI `B.BR6` SameValue
        CFI `B.BR7` SameValue
        CFI `VB.BR8` SameValue
        CFI `VB.BR9` SameValue
        CFI `VB.BR10` SameValue
        CFI `VB.BR11` SameValue
        CFI `VB.BR12` SameValue
        CFI `VB.BR13` SameValue
        CFI `VB.BR14` SameValue
        CFI `VB.BR15` SameValue
        CFI VB SameValue
        CFI B Undefined
        CFI A Undefined
        CFI PSW SameValue
        CFI DPL0 SameValue
        CFI DPH0 SameValue
        CFI R0 Undefined
        CFI R1 Undefined
        CFI R2 Undefined
        CFI R3 Undefined
        CFI R4 Undefined
        CFI R5 Undefined
        CFI R6 SameValue
        CFI R7 SameValue
        CFI V0 SameValue
        CFI V1 SameValue
        CFI V2 SameValue
        CFI V3 SameValue
        CFI V4 SameValue
        CFI V5 SameValue
        CFI V6 SameValue
        CFI V7 SameValue
        CFI V8 SameValue
        CFI V9 SameValue
        CFI V10 SameValue
        CFI V11 SameValue
        CFI V12 SameValue
        CFI V13 SameValue
        CFI V14 SameValue
        CFI V15 SameValue
        CFI PSPH Undefined
        CFI PSPL Undefined
        CFI XSPH Undefined
        CFI XSPL Undefined
        CFI ?RET Concat
        CFI ?BRET_EXT Frame(CFA_SP, 3)
        CFI ?RET_HIGH Frame(CFA_SP, 2)
        CFI ?RET_LOW Frame(CFA_SP, 1)
        CFI EndCommon cfiCommon0
        
TemperADCSampleAndAverage SYMBOL "TemperADCSampleAndAverage"
EnddeviceApp_LookupTemp SYMBOL "EnddeviceApp_LookupTemp"
HalLcdWriteWiFiMod  SYMBOL "HalLcdWriteWiFiMod"
HalLcdWriteChar5x8  SYMBOL "HalLcdWriteChar5x8"
HalLcdWriteDebug    SYMBOL "HalLcdWriteDebug"
HalLcdWriteRelayState SYMBOL "HalLcdWriteRelayState"
HalLcdWriteError    SYMBOL "HalLcdWriteError"
HalLcdWriteRealTemperature SYMBOL "HalLcdWriteRealTemperature"
??EnddeviceApp_LookupTemp?relay SYMBOL "?relay", EnddeviceApp_LookupTemp
??HalLcdWriteChar5x8?relay SYMBOL "?relay", HalLcdWriteChar5x8
??HalLcdWriteDebug?relay SYMBOL "?relay", HalLcdWriteDebug
??HalLcdWriteError?relay SYMBOL "?relay", HalLcdWriteError
??HalLcdWriteRealTemperature?relay SYMBOL "?relay", HalLcdWriteRealTemperature
??HalLcdWriteRelayState?relay SYMBOL "?relay", HalLcdWriteRelayState
??HalLcdWriteWiFiMod?relay SYMBOL "?relay", HalLcdWriteWiFiMod
??TemperADCSampleAndAverage?relay SYMBOL "?relay", TemperADCSampleAndAverage
EnddeviceApp_HandleLCD SYMBOL "EnddeviceApp_HandleLCD"
??EnddeviceApp_HandleLCD?relay SYMBOL "?relay", EnddeviceApp_HandleLCD

        EXTERN TemperADCSampleAndAverage
        FUNCTION TemperADCSampleAndAverage,0202H
        ARGFRAME ISTACK, 0, STACK
        ARGFRAME PSTACK, 0, STACK
        ARGFRAME XSTACK, 12, STACK
        ARGFRAME IOVERLAY, 0, STATIC
        ARGFRAME DOVERLAY, 0, STATIC
        EXTERN EnddeviceApp_LookupTemp
        FUNCTION EnddeviceApp_LookupTemp,0202H
        ARGFRAME ISTACK, 0, STACK
        ARGFRAME PSTACK, 0, STACK
        ARGFRAME XSTACK, 12, STACK
        ARGFRAME IOVERLAY, 0, STATIC
        ARGFRAME DOVERLAY, 0, STATIC
        EXTERN HalLcdWriteWiFiMod
        FUNCTION HalLcdWriteWiFiMod,0202H
        ARGFRAME ISTACK, 0, STACK
        ARGFRAME PSTACK, 0, STACK
        ARGFRAME XSTACK, 12, STACK
        ARGFRAME IOVERLAY, 0, STATIC
        ARGFRAME DOVERLAY, 0, STATIC
        EXTERN HalLcdWriteChar5x8
        FUNCTION HalLcdWriteChar5x8,0202H
        ARGFRAME ISTACK, 0, STACK
        ARGFRAME PSTACK, 0, STACK
        ARGFRAME XSTACK, 12, STACK
        ARGFRAME IOVERLAY, 0, STATIC
        ARGFRAME DOVERLAY, 0, STATIC
        EXTERN HalLcdWriteDebug
        FUNCTION HalLcdWriteDebug,0202H
        ARGFRAME ISTACK, 0, STACK
        ARGFRAME PSTACK, 0, STACK
        ARGFRAME XSTACK, 12, STACK
        ARGFRAME IOVERLAY, 0, STATIC
        ARGFRAME DOVERLAY, 0, STATIC
        EXTERN HalLcdWriteRelayState
        FUNCTION HalLcdWriteRelayState,0202H
        ARGFRAME ISTACK, 0, STACK
        ARGFRAME PSTACK, 0, STACK
        ARGFRAME XSTACK, 12, STACK
        ARGFRAME IOVERLAY, 0, STATIC
        ARGFRAME DOVERLAY, 0, STATIC
        EXTERN HalLcdWriteError
        FUNCTION HalLcdWriteError,0202H
        ARGFRAME ISTACK, 0, STACK
        ARGFRAME PSTACK, 0, STACK
        ARGFRAME XSTACK, 12, STACK
        ARGFRAME IOVERLAY, 0, STATIC
        ARGFRAME DOVERLAY, 0, STATIC
        EXTERN HalLcdWriteRealTemperature
        FUNCTION HalLcdWriteRealTemperature,0202H
        ARGFRAME ISTACK, 0, STACK
        ARGFRAME PSTACK, 0, STACK
        ARGFRAME XSTACK, 12, STACK
        ARGFRAME IOVERLAY, 0, STATIC
        ARGFRAME DOVERLAY, 0, STATIC
        EXTERN ??EnddeviceApp_LookupTemp?relay
        FUNCTION ??EnddeviceApp_LookupTemp?relay,00H
        EXTERN ??HalLcdWriteChar5x8?relay
        FUNCTION ??HalLcdWriteChar5x8?relay,00H
        EXTERN ??HalLcdWriteDebug?relay
        FUNCTION ??HalLcdWriteDebug?relay,00H
        EXTERN ??HalLcdWriteError?relay
        FUNCTION ??HalLcdWriteError?relay,00H
        EXTERN ??HalLcdWriteRealTemperature?relay
        FUNCTION ??HalLcdWriteRealTemperature?relay,00H
        EXTERN ??HalLcdWriteRelayState?relay
        FUNCTION ??HalLcdWriteRelayState?relay,00H
        EXTERN ??HalLcdWriteWiFiMod?relay
        FUNCTION ??HalLcdWriteWiFiMod?relay,00H
        EXTERN ??TemperADCSampleAndAverage?relay
        FUNCTION ??TemperADCSampleAndAverage?relay,00H
        EXTERN BIT_SEL
        EXTERN DebugMode
        EXTERN Debug_Blink
        EXTERN Debug_Blink_Count
        EXTERN Error
        EXTERN Error_Last
        EXTERN FL_Temperature
        EXTERN ID_OR_NET
        EXTERN LINKED
        EXTERN PANID
        EXTERN POWER
        EXTERN RM_Temperature
        EXTERN Real_Tem_Mod
        EXTERN WiFi_Mode
        EXTERN _NIB
        EXTERN debugnum
        EXTERN rssi
        EXTERN sample_tick

// C:\Users\William\Desktop\±œ“µ…Ëº∆\SRC\EndDevice Project for editing\Projects\zstack\MyEnddevice\EndDevice\Source\EnddeviceLCD.c
//    1 #include "EnddeviceVariable.h"

        ASEGN SFR_AN:DATA:NOROOT,090H
// union <unnamed> volatile __sfr _A_P1
_A_P1:
        DATA8
        DS 1
//    2 #include "EnddeviceLCD.h"
//    3 #include "EnddeviceAF.h"
//    4 #include "NTC_Table.h"
//    5 #include "EnddeviceSampleADC.h"
//    6 
//    7 void Enddevice_HandleLCD(void);
//    8 
//    9 /*********************************************************************
//   10  * @fn      EnddeviceApp_HandleLCD
//   11  *
//   12  * @brief  scan the LCD
//   13  *                   
//   14  * @param   none
//   15  *
//   16  * @return  none
//   17  */
//   18 

        RSEG BANKED_CODE:CODE:NOROOT(0)
//   19 void EnddeviceApp_HandleLCD(void)
EnddeviceApp_HandleLCD:
        CFI Block cfiBlock0 Using cfiCommon0
        CFI Function EnddeviceApp_HandleLCD
        CODE
//   20 {
        FUNCALL EnddeviceApp_HandleLCD, TemperADCSampleAndAverage
        LOCFRAME ISTACK, 0, STACK
        LOCFRAME PSTACK, 0, STACK
        LOCFRAME XSTACK, 12, STACK
        LOCFRAME IOVERLAY, 0, STATIC
        LOCFRAME DOVERLAY, 0, STATIC
        ARGFRAME ISTACK, 0, STACK
        ARGFRAME PSTACK, 0, STACK
        ARGFRAME XSTACK, 12, STACK
        ARGFRAME IOVERLAY, 0, STATIC
        ARGFRAME DOVERLAY, 0, STATIC
        FUNCALL EnddeviceApp_HandleLCD, TemperADCSampleAndAverage
        LOCFRAME ISTACK, 0, STACK
        LOCFRAME PSTACK, 0, STACK
        LOCFRAME XSTACK, 12, STACK
        LOCFRAME IOVERLAY, 0, STATIC
        LOCFRAME DOVERLAY, 0, STATIC
        ARGFRAME ISTACK, 0, STACK
        ARGFRAME PSTACK, 0, STACK
        ARGFRAME XSTACK, 12, STACK
        ARGFRAME IOVERLAY, 0, STATIC
        ARGFRAME DOVERLAY, 0, STATIC
        FUNCALL EnddeviceApp_HandleLCD, EnddeviceApp_LookupTemp
        LOCFRAME ISTACK, 0, STACK
        LOCFRAME PSTACK, 0, STACK
        LOCFRAME XSTACK, 12, STACK
        LOCFRAME IOVERLAY, 0, STATIC
        LOCFRAME DOVERLAY, 0, STATIC
        ARGFRAME ISTACK, 0, STACK
        ARGFRAME PSTACK, 0, STACK
        ARGFRAME XSTACK, 12, STACK
        ARGFRAME IOVERLAY, 0, STATIC
        ARGFRAME DOVERLAY, 0, STATIC
        FUNCALL EnddeviceApp_HandleLCD, EnddeviceApp_LookupTemp
        LOCFRAME ISTACK, 0, STACK
        LOCFRAME PSTACK, 0, STACK
        LOCFRAME XSTACK, 12, STACK
        LOCFRAME IOVERLAY, 0, STATIC
        LOCFRAME DOVERLAY, 0, STATIC
        ARGFRAME ISTACK, 0, STACK
        ARGFRAME PSTACK, 0, STACK
        ARGFRAME XSTACK, 12, STACK
        ARGFRAME IOVERLAY, 0, STATIC
        ARGFRAME DOVERLAY, 0, STATIC
        FUNCALL EnddeviceApp_HandleLCD, HalLcdWriteWiFiMod
        LOCFRAME ISTACK, 0, STACK
        LOCFRAME PSTACK, 0, STACK
        LOCFRAME XSTACK, 12, STACK
        LOCFRAME IOVERLAY, 0, STATIC
        LOCFRAME DOVERLAY, 0, STATIC
        ARGFRAME ISTACK, 0, STACK
        ARGFRAME PSTACK, 0, STACK
        ARGFRAME XSTACK, 12, STACK
        ARGFRAME IOVERLAY, 0, STATIC
        ARGFRAME DOVERLAY, 0, STATIC
        FUNCALL EnddeviceApp_HandleLCD, HalLcdWriteWiFiMod
        LOCFRAME ISTACK, 0, STACK
        LOCFRAME PSTACK, 0, STACK
        LOCFRAME XSTACK, 12, STACK
        LOCFRAME IOVERLAY, 0, STATIC
        LOCFRAME DOVERLAY, 0, STATIC
        ARGFRAME ISTACK, 0, STACK
        ARGFRAME PSTACK, 0, STACK
        ARGFRAME XSTACK, 12, STACK
        ARGFRAME IOVERLAY, 0, STATIC
        ARGFRAME DOVERLAY, 0, STATIC
        FUNCALL EnddeviceApp_HandleLCD, HalLcdWriteChar5x8
        LOCFRAME ISTACK, 0, STACK
        LOCFRAME PSTACK, 0, STACK
        LOCFRAME XSTACK, 12, STACK
        LOCFRAME IOVERLAY, 0, STATIC
        LOCFRAME DOVERLAY, 0, STATIC
        ARGFRAME ISTACK, 0, STACK
        ARGFRAME PSTACK, 0, STACK
        ARGFRAME XSTACK, 12, STACK
        ARGFRAME IOVERLAY, 0, STATIC
        ARGFRAME DOVERLAY, 0, STATIC
        FUNCALL EnddeviceApp_HandleLCD, HalLcdWriteChar5x8
        LOCFRAME ISTACK, 0, STACK
        LOCFRAME PSTACK, 0, STACK
        LOCFRAME XSTACK, 12, STACK
        LOCFRAME IOVERLAY, 0, STATIC
        LOCFRAME DOVERLAY, 0, STATIC
        ARGFRAME ISTACK, 0, STACK
        ARGFRAME PSTACK, 0, STACK
        ARGFRAME XSTACK, 12, STACK
        ARGFRAME IOVERLAY, 0, STATIC
        ARGFRAME DOVERLAY, 0, STATIC
        FUNCALL EnddeviceApp_HandleLCD, HalLcdWriteChar5x8
        LOCFRAME ISTACK, 0, STACK
        LOCFRAME PSTACK, 0, STACK
        LOCFRAME XSTACK, 12, STACK
        LOCFRAME IOVERLAY, 0, STATIC
        LOCFRAME DOVERLAY, 0, STATIC
        ARGFRAME ISTACK, 0, STACK
        ARGFRAME PSTACK, 0, STACK
        ARGFRAME XSTACK, 12, STACK
        ARGFRAME IOVERLAY, 0, STATIC
        ARGFRAME DOVERLAY, 0, STATIC
        FUNCALL EnddeviceApp_HandleLCD, HalLcdWriteChar5x8
        LOCFRAME ISTACK, 0, STACK
        LOCFRAME PSTACK, 0, STACK
        LOCFRAME XSTACK, 12, STACK
        LOCFRAME IOVERLAY, 0, STATIC
        LOCFRAME DOVERLAY, 0, STATIC
        ARGFRAME ISTACK, 0, STACK
        ARGFRAME PSTACK, 0, STACK
        ARGFRAME XSTACK, 12, STACK
        ARGFRAME IOVERLAY, 0, STATIC
        ARGFRAME DOVERLAY, 0, STATIC
        FUNCALL EnddeviceApp_HandleLCD, HalLcdWriteDebug
        LOCFRAME ISTACK, 0, STACK
        LOCFRAME PSTACK, 0, STACK
        LOCFRAME XSTACK, 12, STACK
        LOCFRAME IOVERLAY, 0, STATIC
        LOCFRAME DOVERLAY, 0, STATIC
        ARGFRAME ISTACK, 0, STACK
        ARGFRAME PSTACK, 0, STACK
        ARGFRAME XSTACK, 12, STACK
        ARGFRAME IOVERLAY, 0, STATIC
        ARGFRAME DOVERLAY, 0, STATIC
        FUNCALL EnddeviceApp_HandleLCD, HalLcdWriteRelayState
        LOCFRAME ISTACK, 0, STACK
        LOCFRAME PSTACK, 0, STACK
        LOCFRAME XSTACK, 12, STACK
        LOCFRAME IOVERLAY, 0, STATIC
        LOCFRAME DOVERLAY, 0, STATIC
        ARGFRAME ISTACK, 0, STACK
        ARGFRAME PSTACK, 0, STACK
        ARGFRAME XSTACK, 12, STACK
        ARGFRAME IOVERLAY, 0, STATIC
        ARGFRAME DOVERLAY, 0, STATIC
        FUNCALL EnddeviceApp_HandleLCD, HalLcdWriteError
        LOCFRAME ISTACK, 0, STACK
        LOCFRAME PSTACK, 0, STACK
        LOCFRAME XSTACK, 12, STACK
        LOCFRAME IOVERLAY, 0, STATIC
        LOCFRAME DOVERLAY, 0, STATIC
        ARGFRAME ISTACK, 0, STACK
        ARGFRAME PSTACK, 0, STACK
        ARGFRAME XSTACK, 12, STACK
        ARGFRAME IOVERLAY, 0, STATIC
        ARGFRAME DOVERLAY, 0, STATIC
        FUNCALL EnddeviceApp_HandleLCD, HalLcdWriteRealTemperature
        LOCFRAME ISTACK, 0, STACK
        LOCFRAME PSTACK, 0, STACK
        LOCFRAME XSTACK, 12, STACK
        LOCFRAME IOVERLAY, 0, STATIC
        LOCFRAME DOVERLAY, 0, STATIC
        ARGFRAME ISTACK, 0, STACK
        ARGFRAME PSTACK, 0, STACK
        ARGFRAME XSTACK, 12, STACK
        ARGFRAME IOVERLAY, 0, STATIC
        ARGFRAME DOVERLAY, 0, STATIC
        FUNCALL EnddeviceApp_HandleLCD, HalLcdWriteRealTemperature
        LOCFRAME ISTACK, 0, STACK
        LOCFRAME PSTACK, 0, STACK
        LOCFRAME XSTACK, 12, STACK
        LOCFRAME IOVERLAY, 0, STATIC
        LOCFRAME DOVERLAY, 0, STATIC
        ARGFRAME ISTACK, 0, STACK
        ARGFRAME PSTACK, 0, STACK
        ARGFRAME XSTACK, 12, STACK
        ARGFRAME IOVERLAY, 0, STATIC
        ARGFRAME DOVERLAY, 0, STATIC
        FUNCALL EnddeviceApp_HandleLCD, HalLcdWriteError
        LOCFRAME ISTACK, 0, STACK
        LOCFRAME PSTACK, 0, STACK
        LOCFRAME XSTACK, 12, STACK
        LOCFRAME IOVERLAY, 0, STATIC
        LOCFRAME DOVERLAY, 0, STATIC
        ARGFRAME ISTACK, 0, STACK
        ARGFRAME PSTACK, 0, STACK
        ARGFRAME XSTACK, 12, STACK
        ARGFRAME IOVERLAY, 0, STATIC
        ARGFRAME DOVERLAY, 0, STATIC
        MOV     A,#-0xc
        LCALL   ?BANKED_ENTER_XDATA
        CFI DPH0 load(1, XDATA, add(CFA_XSP16, literal(-1)))
        CFI DPL0 load(1, XDATA, add(CFA_XSP16, literal(-2)))
        CFI ?BRET_EXT load(1, XDATA, add(CFA_XSP16, literal(-3)))
        CFI ?RET_HIGH load(1, XDATA, add(CFA_XSP16, literal(-4)))
        CFI ?RET_LOW load(1, XDATA, add(CFA_XSP16, literal(-5)))
        CFI R7 load(1, XDATA, add(CFA_XSP16, literal(-6)))
        CFI V3 load(1, XDATA, add(CFA_XSP16, literal(-7)))
        CFI V2 load(1, XDATA, add(CFA_XSP16, literal(-8)))
        CFI V1 load(1, XDATA, add(CFA_XSP16, literal(-9)))
        CFI V0 load(1, XDATA, add(CFA_XSP16, literal(-10)))
        CFI VB load(1, XDATA, add(CFA_XSP16, literal(-11)))
        CFI R6 load(1, XDATA, add(CFA_XSP16, literal(-12)))
        CFI CFA_SP SP+0
        CFI CFA_XSP16 add(XSP16, 12)
        ; Saved register size: 12
        ; Auto size: 0
//   21     // get the next rssi and sample the temperature every 2s
//   22     if(sample_tick == 10)
        MOV     DPTR,#sample_tick
        MOVX    A,@DPTR
        XRL     A,#0xa
        JZ      $+5
        LJMP    ??EnddeviceApp_HandleLCD_0 & 0xFFFF
//   23     {
//   24  
//   25        uint16 RM_ADC_Result = TemperADCSampleAndAverage(10,0);
        ; Setup parameters for call to function TemperADCSampleAndAverage
        MOV     R2,#0x0
        MOV     R1,#0xa
        LCALL   ??TemperADCSampleAndAverage?relay
        MOV     ?V0 + 0,R2
        MOV     ?V0 + 1,R3
//   26        uint16 FL_ADC_Result = TemperADCSampleAndAverage(10,1);
        ; Setup parameters for call to function TemperADCSampleAndAverage
        MOV     R2,#0x1
        MOV     R1,#0xa
        LCALL   ??TemperADCSampleAndAverage?relay
        MOV     ?V0 + 2,R2
        MOV     ?V0 + 3,R3
        MOV     R6,?V0 + 2
        MOV     R7,?V0 + 3
//   27        RM_Temperature = (uint16)EnddeviceApp_LookupTemp(RM_ADC_Result << 1);
        ; Setup parameters for call to function EnddeviceApp_LookupTemp
        MOV     A,?V0 + 0
        CLR     C
        RLC     A
        MOV     R2,A
        MOV     A,?V0 + 1
        RLC     A
        MOV     R3,A
        LCALL   ??EnddeviceApp_LookupTemp?relay
        MOV     DPTR,#RM_Temperature
        MOV     A,R2
        MOVX    @DPTR,A
        INC     DPTR
        MOV     A,R3
        MOVX    @DPTR,A
//   28        FL_Temperature = (uint16)EnddeviceApp_LookupTemp(FL_ADC_Result << 1);
        ; Setup parameters for call to function EnddeviceApp_LookupTemp
        MOV     A,R6
        MOV     R2,A
        MOV     A,R7
        MOV     R3,A
        MOV     A,R2
        CLR     C
        RLC     A
        MOV     R2,A
        MOV     A,R3
        RLC     A
        MOV     R3,A
        LCALL   ??EnddeviceApp_LookupTemp?relay
        MOV     DPTR,#FL_Temperature
        MOV     A,R2
        MOVX    @DPTR,A
        INC     DPTR
        MOV     A,R3
        MOVX    @DPTR,A
//   29         
//   30    
//   31         // an error occur
//   32         if((RM_ADC_Result >= 1700) || 
//   33            (FL_ADC_Result >= 1700) ||
//   34            (RM_ADC_Result <= 150)  ||
//   35            (FL_ADC_Result <= 150)
//   36           )
        CLR     C
        MOV     A,?V0 + 0
        SUBB    A,#-0x5c
        MOV     A,?V0 + 1
        SUBB    A,#0x6
        JNC     ??EnddeviceApp_HandleLCD_1
        CLR     C
        MOV     A,R6
        SUBB    A,#-0x5c
        MOV     A,R7
        SUBB    A,#0x6
        JNC     ??EnddeviceApp_HandleLCD_1
        CLR     C
        MOV     A,?V0 + 0
        SUBB    A,#-0x69
        MOV     A,?V0 + 1
        SUBB    A,#0x0
        JC      ??EnddeviceApp_HandleLCD_1
        CLR     C
        MOV     A,R6
        SUBB    A,#-0x69
        MOV     A,R7
        SUBB    A,#0x0
        JNC     ??EnddeviceApp_HandleLCD_2
//   37        {
//   38             Error = TRUE; 
??EnddeviceApp_HandleLCD_1:
        MOV     DPTR,#Error
        MOV     A,#0x1
        MOVX    @DPTR,A
//   39             REL_CTL = 0;
        CLR     0x90.2
        SJMP    ??EnddeviceApp_HandleLCD_3
//   40        }
//   41        else
//   42        {
//   43             Error = FALSE; 
??EnddeviceApp_HandleLCD_2:
        MOV     DPTR,#Error
        CLR     A
        MOVX    @DPTR,A
//   44        }
//   45        sample_tick = 0;
??EnddeviceApp_HandleLCD_3:
        MOV     DPTR,#sample_tick
        CLR     A
        MOVX    @DPTR,A
//   46     } 
//   47        
//   48     sample_tick++;
??EnddeviceApp_HandleLCD_0:
        MOVX    A,@DPTR
        INC     A
        MOVX    @DPTR,A
//   49      
//   50     if(rssi >= -55)
        MOV     DPTR,#rssi
        MOVX    A,@DPTR
        CLR     C
        SUBB    A,#-0x37
        MOV     C,0xD0 /* PSW */.2
        XRL     A,PSW
        RLC     A
        JC      ??EnddeviceApp_HandleLCD_4
//   51       WiFi_Mode = 0;
        MOV     DPTR,#WiFi_Mode
        CLR     A
        SJMP    ??EnddeviceApp_HandleLCD_5
//   52     else if(rssi >= -85)
??EnddeviceApp_HandleLCD_4:
        MOVX    A,@DPTR
        CLR     C
        SUBB    A,#-0x55
        MOV     C,0xD0 /* PSW */.2
        XRL     A,PSW
        RLC     A
        MOV     DPTR,#WiFi_Mode
        JC      ??EnddeviceApp_HandleLCD_6
//   53       WiFi_Mode = 1;
        MOV     A,#0x1
        SJMP    ??EnddeviceApp_HandleLCD_5
//   54     else
//   55       WiFi_Mode = 2;
??EnddeviceApp_HandleLCD_6:
        MOV     A,#0x2
??EnddeviceApp_HandleLCD_5:
        MOVX    @DPTR,A
//   56     
//   57     
//   58     // write the wifi mode    
//   59     if(LINKED)
        MOV     DPTR,#LINKED
        MOVX    A,@DPTR
        JZ      ??EnddeviceApp_HandleLCD_7
//   60     {
//   61       HalLcdWriteWiFiMod(WiFi_Mode);
        ; Setup parameters for call to function HalLcdWriteWiFiMod
        MOV     DPTR,#WiFi_Mode
        MOVX    A,@DPTR
        MOV     R1,A
        SJMP    ??EnddeviceApp_HandleLCD_8
//   62     }
//   63     else
//   64     {
//   65       HalLcdWriteWiFiMod(3);// not linked to the zigbee net
??EnddeviceApp_HandleLCD_7:
        ; Setup parameters for call to function HalLcdWriteWiFiMod
        MOV     R1,#0x3
??EnddeviceApp_HandleLCD_8:
        LCALL   ??HalLcdWriteWiFiMod?relay
//   66     }
//   67    
//   68    // write the debug information
//   69    if(DebugMode)
        MOV     DPTR,#DebugMode
        MOVX    A,@DPTR
        JNZ     $+5
        LJMP    ??EnddeviceApp_HandleLCD_9 & 0xFFFF
//   70    { 
//   71       PANID = _NIB.nwkPanId;
        MOV     DPTR,#_NIB + 33
        MOVX    A,@DPTR
        MOV     R0,A
        INC     DPTR
        MOVX    A,@DPTR
        MOV     R1,A
        MOV     DPTR,#PANID
        MOV     A,R0
        MOVX    @DPTR,A
        INC     DPTR
        MOV     A,R1
        MOVX    @DPTR,A
//   72       
//   73       // write the PANID of the net
//   74       uint8 first = PANID / 4096;
//   75       uint8 second = PANID / 256 % 16;
        ANL     A,#0xf
        MOV     R6,A
//   76       uint8 third = PANID / 16 % 16;
        MOV     DPTR,#PANID
        MOVX    A,@DPTR
        SWAP    A
        ANL     A,#0xf
        MOV     R7,A
//   77       uint8 fourth = PANID % 16;
        MOVX    A,@DPTR
        ANL     A,#0xf
        MOV     ?V0 + 0,A
//   78       HalLcdWriteChar5x8(first,0,30,TRUE);
        ; Setup parameters for call to function HalLcdWriteChar5x8
        MOV     R4,#0x1
        MOV     R3,#0x1e
        MOV     R2,#0x0
        MOVX    A,@DPTR
        MOV     ?V0 + 2,A
        INC     DPTR
        MOVX    A,@DPTR
        MOV     ?V0 + 3,A
        MOV     A,#0xc
        MOV     R0,#?V0 + 2
        LCALL   ?US_SHR
        MOV     R1,?V0 + 2
        LCALL   ??HalLcdWriteChar5x8?relay
//   79       HalLcdWriteChar5x8(second,0,35,TRUE);
        ; Setup parameters for call to function HalLcdWriteChar5x8
        MOV     R4,#0x1
        MOV     R3,#0x23
        MOV     R2,#0x0
        MOV     A,R6
        MOV     R1,A
        LCALL   ??HalLcdWriteChar5x8?relay
//   80       HalLcdWriteChar5x8(third,0,40,TRUE);
        ; Setup parameters for call to function HalLcdWriteChar5x8
        MOV     R4,#0x1
        MOV     R3,#0x28
        MOV     R2,#0x0
        MOV     A,R7
        MOV     R1,A
        LCALL   ??HalLcdWriteChar5x8?relay
//   81       HalLcdWriteChar5x8(fourth,0,45,TRUE);
        ; Setup parameters for call to function HalLcdWriteChar5x8
        MOV     R4,#0x1
        MOV     R3,#0x2d
        MOV     R2,#0x0
        MOV     R1,?V0 + 0
        LCALL   ??HalLcdWriteChar5x8?relay
//   82       
//   83       // write the change content of deviceID or netID
//   84       if(Debug_Blink_Count++ == 3)
        MOV     DPTR,#Debug_Blink_Count
        MOVX    A,@DPTR
        MOV     R0,A
        MOV     A,#0x1
        ADD     A,R0
        MOVX    @DPTR,A
        MOV     A,#0x3
        XRL     A,R0
        JNZ     ??EnddeviceApp_HandleLCD_9
//   85       {
//   86         Debug_Blink_Count = 0;
        CLR     A
        MOVX    @DPTR,A
//   87         Debug_Blink ^= 1; // for the blink function
        MOV     DPTR,#Debug_Blink
        MOVX    A,@DPTR
        XRL     A,#0x1
        MOVX    @DPTR,A
//   88         HalLcdWriteDebug(debugnum,BIT_SEL,ID_OR_NET,TRUE,Debug_Blink);
        ; Setup parameters for call to function HalLcdWriteDebug
        MOV     R5,A
        MOV     R4,#0x1
        MOV     DPTR,#ID_OR_NET
        MOVX    A,@DPTR
        MOV     R3,A
        MOV     DPTR,#BIT_SEL
        MOVX    A,@DPTR
        MOV     R2,A
        MOV     DPTR,#debugnum
        MOVX    A,@DPTR
        MOV     R1,A
        LCALL   ??HalLcdWriteDebug?relay
//   89       }
//   90       
//   91     }
//   92     
//   93     
//   94     // write the relay state
//   95     HalLcdWriteRelayState(REL_CTL);
??EnddeviceApp_HandleLCD_9:
        ; Setup parameters for call to function HalLcdWriteRelayState
        MOV     C,0x90.2
        CLR     A
        RLC     A
        MOV     R1,A
        LCALL   ??HalLcdWriteRelayState?relay
//   96  
//   97     
//   98     // write the real temperatrue
//   99     if(!Error)// the error doesn't exist
        MOV     DPTR,#Error
        MOVX    A,@DPTR
        MOV     DPTR,#Error_Last
        JNZ     ??EnddeviceApp_HandleLCD_10
//  100     {
//  101         if(Error_Last)// the error has been removed  for the fisrst time
        MOVX    A,@DPTR
        JZ      ??EnddeviceApp_HandleLCD_11
//  102         {
//  103           HalLcdWriteError(FALSE);
        ; Setup parameters for call to function HalLcdWriteError
        MOV     R1,#0x0
        LCALL   ??HalLcdWriteError?relay
//  104         }
//  105         if(!POWER)
??EnddeviceApp_HandleLCD_11:
        MOV     DPTR,#POWER
        MOVX    A,@DPTR
        JNZ     ??EnddeviceApp_HandleLCD_12
//  106         {
//  107            HalLcdWriteRealTemperature(RM_Temperature);
??EnddeviceApp_HandleLCD_13:
        ; Setup parameters for call to function HalLcdWriteRealTemperature
        MOV     DPTR,#RM_Temperature
??EnddeviceApp_HandleLCD_14:
        MOVX    A,@DPTR
        MOV     R2,A
        INC     DPTR
        MOVX    A,@DPTR
        MOV     R3,A
        LCALL   ??HalLcdWriteRealTemperature?relay
        SJMP    ??EnddeviceApp_HandleLCD_15
//  108         }
//  109         else
//  110         {
//  111           if(Real_Tem_Mod)
??EnddeviceApp_HandleLCD_12:
        MOV     DPTR,#Real_Tem_Mod
        MOVX    A,@DPTR
        JNZ     ??EnddeviceApp_HandleLCD_13
//  112           {
//  113             HalLcdWriteRealTemperature(RM_Temperature);//SetRM_Temperature * 10);
//  114           }
//  115           else
//  116           {
//  117             HalLcdWriteRealTemperature(FL_Temperature);
        ; Setup parameters for call to function HalLcdWriteRealTemperature
        MOV     DPTR,#FL_Temperature
        SJMP    ??EnddeviceApp_HandleLCD_14
//  118           }
//  119         }
//  120     }
//  121     else// the error exists
//  122     {
//  123       if(!Error_Last)//the error occur for the fisrst time
??EnddeviceApp_HandleLCD_10:
        MOVX    A,@DPTR
        JNZ     ??EnddeviceApp_HandleLCD_15
//  124       {
//  125         HalLcdWriteError(TRUE);
        ; Setup parameters for call to function HalLcdWriteError
        MOV     R1,#0x1
        LCALL   ??HalLcdWriteError?relay
//  126       }
//  127     }
//  128     
//  129     Error_Last = Error;
??EnddeviceApp_HandleLCD_15:
        MOV     DPTR,#Error
        MOVX    A,@DPTR
        MOV     DPTR,#Error_Last
        MOVX    @DPTR,A
//  130 }
        MOV     R7,#0x4
        LJMP    ?BANKED_LEAVE_XDATA
        CFI EndBlock cfiBlock0
        REQUIRE _A_P1

        RSEG BANK_RELAYS:CODE:REORDER:NOROOT(0)
??EnddeviceApp_HandleLCD?relay:
        LCALL   ?BDISPATCH
        DATA
        DC24    EnddeviceApp_HandleLCD

        END
//  131 
//  132 
//  133 
//  134 
// 
// 425 bytes in segment BANKED_CODE
//   6 bytes in segment BANK_RELAYS
//   1 byte  in segment SFR_AN
// 
// 431 bytes of CODE memory
//   0 bytes of DATA memory (+ 1 byte shared)
//
//Errors: none
//Warnings: none
