###############################################################################
#                                                                             #
# IAR C/C++ Compiler V8.10.1.10194/W32 for 8051         21/Apr/2015  17:17:53 #
# Copyright 2004-2011 IAR Systems AB.                                         #
#                                                                             #
#    Core               =  plain                                              #
#    Code model         =  banked                                             #
#    Data model         =  large                                              #
#    Calling convention =  xdata reentrant                                    #
#    Constant location  =  data_rom                                           #
#    Dptr setup         =  1,16                                               #
#    Source file        =  C:\Users\William\Desktop\±œ“µ…Ëº∆\SRC\EndDevice-Pr #
#                          oject-for-editing\Projects\zstack\MyEnddevice\EndD #
#                          evice\Source\EnddeviceLCD.c                        #
#    Command line       =  -f C:\Users\William\Desktop\±œ“µ…Ëº∆\SRC\EndDevice #
#                          -Project-for-editing\Projects\zstack\MyEnddevice\E #
#                          ndDevice\CC2530DB\..\..\..\Tools\CC2530DB\f8wEndev #
#                          .cfg (-DCPU32MHZ -DROOT=__near_func                #
#                          -DMAC_CFG_TX_DATA_MAX=3 -DMAC_CFG_TX_MAX=6         #
#                          -DMAC_CFG_RX_MAX=3) -f C:\Users\William\Desktop\±œ #
#                          “µ…Ëº∆\SRC\EndDevice-Project-for-editing\Projects\ #
#                          zstack\MyEnddevice\EndDevice\CC2530DB\..\..\..\Too #
#                          ls\CC2530DB\f8wConfig.cfg (-DZIGBEEPRO -DSECURE=0  #
#                          -DZG_SECURE_DYNAMIC=0 -DREFLECTOR                  #
#                          -DDEFAULT_CHANLIST=0x02000000                      #
#                          -DZDAPP_CONFIG_PAN_ID=0xFFFF                       #
#                          -DNWK_START_DELAY=100 -DEXTENDED_JOINING_RANDOM_MA #
#                          SK=0x007F -DBEACON_REQUEST_DELAY=100               #
#                          -DBEACON_REQ_DELAY_MASK=0x00FF                     #
#                          -DLINK_STATUS_JITTER_MASK=0x007F                   #
#                          -DROUTE_EXPIRY_TIME=30 -DAPSC_ACK_WAIT_DURATION_PO #
#                          LLED=3000 -DNWK_INDIRECT_MSG_TIMEOUT=7             #
#                          -DMAX_RREQ_ENTRIES=8 -DAPSC_MAX_FRAME_RETRIES=3    #
#                          -DNWK_MAX_DATA_RETRIES=2                           #
#                          -DMAX_POLL_FAILURE_RETRIES=2 -DMAX_BCAST=9         #
#                          -DAPS_MAX_GROUPS=16 -DMAX_RTG_ENTRIES=40           #
#                          -DNWK_MAX_BINDING_ENTRIES=4                        #
#                          -DMAX_BINDING_CLUSTER_IDS=4 "-DDEFAULT_KEY={0x01,  #
#                          0x03, 0x05, 0x07, 0x09, 0x0B, 0x0D, 0x0F, 0x00,    #
#                          0x02, 0x04, 0x06, 0x08, 0x0A, 0x0C, 0x0D}"         #
#                          -DMAC_MAX_FRAME_SIZE=116                           #
#                          -DZDNWKMGR_MIN_TRANSMISSIONS=20 "-DCONST=const     #
#                          __code" -DGENERIC=__generic                        #
#                          -DRFD_RCVC_ALWAYS_ON=FALSE -DPOLL_RATE=1000        #
#                          -DQUEUED_POLL_RATE=100 -DRESPONSE_POLL_RATE=100)   #
#                          -DREJOIN_POLL_RATE=440 C:\Users\William\Desktop\±œ #
#                          “µ…Ëº∆\SRC\EndDevice-Project-for-editing\Projects\ #
#                          zstack\MyEnddevice\EndDevice\Source\EnddeviceLCD.c #
#                           -D NWK_AUTO_POLL -D NV_RESTORE=1 -D xZTOOL_P1 -D  #
#                          xMT_TASK -D xMT_SYS_FUNC -D xMT_ZDO_FUNC -D        #
#                          xLCD_SUPPORTED=DEBUG -lC                           #
#                          C:\Users\William\Desktop\±œ“µ…Ëº∆\SRC\EndDevice-Pr #
#                          oject-for-editing\Projects\zstack\MyEnddevice\EndD #
#                          evice\CC2530DB\EndDeviceEB\List\ -lA               #
#                          C:\Users\William\Desktop\±œ“µ…Ëº∆\SRC\EndDevice-Pr #
#                          oject-for-editing\Projects\zstack\MyEnddevice\EndD #
#                          evice\CC2530DB\EndDeviceEB\List\ --diag_suppress   #
#                          Pe001,Pa010 -o C:\Users\William\Desktop\±œ“µ…Ëº∆\S #
#                          RC\EndDevice-Project-for-editing\Projects\zstack\M #
#                          yEnddevice\EndDevice\CC2530DB\EndDeviceEB\Obj\ -e  #
#                          --no_code_motion --debug --core=plain --dptr=16,1  #
#                          --data_model=large --code_model=banked             #
#                          --calling_convention=xdata_reentrant               #
#                          --place_constants=data_rom --nr_virtual_regs 16    #
#                          -I C:\Users\William\Desktop\±œ“µ…Ëº∆\SRC\EndDevice #
#                          -Project-for-editing\Projects\zstack\MyEnddevice\E #
#                          ndDevice\CC2530DB\ -I C:\Users\William\Desktop\±œ“ #
#                          µ…Ëº∆\SRC\EndDevice-Project-for-editing\Projects\z #
#                          stack\MyEnddevice\EndDevice\CC2530DB\..\Source\    #
#                          -I C:\Users\William\Desktop\±œ“µ…Ëº∆\SRC\EndDevice #
#                          -Project-for-editing\Projects\zstack\MyEnddevice\E #
#                          ndDevice\CC2530DB\..\..\..\ZMain\TI2530DB\ -I      #
#                          C:\Users\William\Desktop\±œ“µ…Ëº∆\SRC\EndDevice-Pr #
#                          oject-for-editing\Projects\zstack\MyEnddevice\EndD #
#                          evice\CC2530DB\..\..\..\..\..\Components\hal\inclu #
#                          de\ -I C:\Users\William\Desktop\±œ“µ…Ëº∆\SRC\EndDe #
#                          vice-Project-for-editing\Projects\zstack\MyEnddevi #
#                          ce\EndDevice\CC2530DB\..\..\..\..\..\Components\ha #
#                          l\target\CC2530EB\ -I C:\Users\William\Desktop\±œ“ #
#                          µ…Ëº∆\SRC\EndDevice-Project-for-editing\Projects\z #
#                          stack\MyEnddevice\EndDevice\CC2530DB\..\..\..\..\. #
#                          .\Components\mac\include\ -I                       #
#                          C:\Users\William\Desktop\±œ“µ…Ëº∆\SRC\EndDevice-Pr #
#                          oject-for-editing\Projects\zstack\MyEnddevice\EndD #
#                          evice\CC2530DB\..\..\..\..\..\Components\mac\high_ #
#                          level\ -I C:\Users\William\Desktop\±œ“µ…Ëº∆\SRC\En #
#                          dDevice-Project-for-editing\Projects\zstack\MyEndd #
#                          evice\EndDevice\CC2530DB\..\..\..\..\..\Components #
#                          \mac\low_level\srf04\ -I                           #
#                          C:\Users\William\Desktop\±œ“µ…Ëº∆\SRC\EndDevice-Pr #
#                          oject-for-editing\Projects\zstack\MyEnddevice\EndD #
#                          evice\CC2530DB\..\..\..\..\..\Components\mac\low_l #
#                          evel\srf04\single_chip\ -I                         #
#                          C:\Users\William\Desktop\±œ“µ…Ëº∆\SRC\EndDevice-Pr #
#                          oject-for-editing\Projects\zstack\MyEnddevice\EndD #
#                          evice\CC2530DB\..\..\..\..\..\Components\mt\ -I    #
#                          C:\Users\William\Desktop\±œ“µ…Ëº∆\SRC\EndDevice-Pr #
#                          oject-for-editing\Projects\zstack\MyEnddevice\EndD #
#                          evice\CC2530DB\..\..\..\..\..\Components\osal\incl #
#                          ude\ -I C:\Users\William\Desktop\±œ“µ…Ëº∆\SRC\EndD #
#                          evice-Project-for-editing\Projects\zstack\MyEnddev #
#                          ice\EndDevice\CC2530DB\..\..\..\..\..\Components\s #
#                          ervices\saddr\ -I C:\Users\William\Desktop\±œ“µ…Ëº #
#                          ∆\SRC\EndDevice-Project-for-editing\Projects\zstac #
#                          k\MyEnddevice\EndDevice\CC2530DB\..\..\..\..\..\Co #
#                          mponents\services\sdata\ -I                        #
#                          C:\Users\William\Desktop\±œ“µ…Ëº∆\SRC\EndDevice-Pr #
#                          oject-for-editing\Projects\zstack\MyEnddevice\EndD #
#                          evice\CC2530DB\..\..\..\..\..\Components\stack\af\ #
#                           -I C:\Users\William\Desktop\±œ“µ…Ëº∆\SRC\EndDevic #
#                          e-Project-for-editing\Projects\zstack\MyEnddevice\ #
#                          EndDevice\CC2530DB\..\..\..\..\..\Components\stack #
#                          \nwk\ -I C:\Users\William\Desktop\±œ“µ…Ëº∆\SRC\End #
#                          Device-Project-for-editing\Projects\zstack\MyEndde #
#                          vice\EndDevice\CC2530DB\..\..\..\..\..\Components\ #
#                          stack\sapi\ -I C:\Users\William\Desktop\±œ“µ…Ëº∆\S #
#                          RC\EndDevice-Project-for-editing\Projects\zstack\M #
#                          yEnddevice\EndDevice\CC2530DB\..\..\..\..\..\Compo #
#                          nents\stack\sec\ -I C:\Users\William\Desktop\±œ“µ… #
#                          Ëº∆\SRC\EndDevice-Project-for-editing\Projects\zst #
#                          ack\MyEnddevice\EndDevice\CC2530DB\..\..\..\..\..\ #
#                          Components\stack\sys\ -I                           #
#                          C:\Users\William\Desktop\±œ“µ…Ëº∆\SRC\EndDevice-Pr #
#                          oject-for-editing\Projects\zstack\MyEnddevice\EndD #
#                          evice\CC2530DB\..\..\..\..\..\Components\stack\zdo #
#                          \ -I C:\Users\William\Desktop\±œ“µ…Ëº∆\SRC\EndDevi #
#                          ce-Project-for-editing\Projects\zstack\MyEnddevice #
#                          \EndDevice\CC2530DB\..\..\..\..\..\Components\zmac #
#                          \ -I C:\Users\William\Desktop\±œ“µ…Ëº∆\SRC\EndDevi #
#                          ce-Project-for-editing\Projects\zstack\MyEnddevice #
#                          \EndDevice\CC2530DB\..\..\..\..\..\Components\zmac #
#                          \f8w\ -Ohz                                         #
#    List file          =  C:\Users\William\Desktop\±œ“µ…Ëº∆\SRC\EndDevice-Pr #
#                          oject-for-editing\Projects\zstack\MyEnddevice\EndD #
#                          evice\CC2530DB\EndDeviceEB\List\EnddeviceLCD.lst   #
#    Object file        =  C:\Users\William\Desktop\±œ“µ…Ëº∆\SRC\EndDevice-Pr #
#                          oject-for-editing\Projects\zstack\MyEnddevice\EndD #
#                          evice\CC2530DB\EndDeviceEB\Obj\EnddeviceLCD.r51    #
#                                                                             #
#                                                                             #
###############################################################################

C:\Users\William\Desktop\±œ“µ…Ëº∆\SRC\EndDevice-Project-for-editing\Projects\zstack\MyEnddevice\EndDevice\Source\EnddeviceLCD.c
      1          #include "EnddeviceVariable.h"

   \                                 In  segment SFR_AN, at 0x90
   \   union <unnamed> volatile __sfr _A_P1
   \                     _A_P1:
   \   000000                DS 1
      2          #include "EnddeviceLCD.h"
      3          #include "EnddeviceAF.h"
      4          #include "NTC_Table.h"
      5          #include "EnddeviceSampleADC.h"
      6          
      7          void Enddevice_HandleLCD(void);
      8          
      9          /*********************************************************************
     10           * @fn      EnddeviceApp_HandleLCD
     11           *
     12           * @brief  scan the LCD
     13           *                   
     14           * @param   none
     15           *
     16           * @return  none
     17           */
     18          

   \                                 In  segment BANKED_CODE, align 1, keep-with-next
     19          void EnddeviceApp_HandleLCD(void)
   \                     EnddeviceApp_HandleLCD:
     20          {
   \   000000   74F4         MOV     A,#-0xc
   \   000002   12....       LCALL   ?BANKED_ENTER_XDATA
   \   000005                ; Saved register size: 12
   \   000005                ; Auto size: 0
     21              // get the next rssi and sample the temperature every 2s  
     22              if(rssi >= -55)
   \   000005   90....       MOV     DPTR,#rssi
   \   000008   E0           MOVX    A,@DPTR
   \   000009   C3           CLR     C
   \   00000A   94C9         SUBB    A,#-0x37
   \   00000C   A2D2         MOV     C,0xD0 /* PSW */.2
   \   00000E   65D0         XRL     A,PSW
   \   000010   33           RLC     A
   \   000011   4006         JC      ??EnddeviceApp_HandleLCD_0
     23                WiFi_Mode = 0;
   \   000013   90....       MOV     DPTR,#WiFi_Mode
   \   000016   E4           CLR     A
   \   000017   8014         SJMP    ??EnddeviceApp_HandleLCD_1
     24              else if(rssi >= -85)
   \                     ??EnddeviceApp_HandleLCD_0:
   \   000019   E0           MOVX    A,@DPTR
   \   00001A   C3           CLR     C
   \   00001B   94AB         SUBB    A,#-0x55
   \   00001D   A2D2         MOV     C,0xD0 /* PSW */.2
   \   00001F   65D0         XRL     A,PSW
   \   000021   33           RLC     A
   \   000022   90....       MOV     DPTR,#WiFi_Mode
   \   000025   4004         JC      ??EnddeviceApp_HandleLCD_2
     25                WiFi_Mode = 1;
   \   000027   7401         MOV     A,#0x1
   \   000029   8002         SJMP    ??EnddeviceApp_HandleLCD_1
     26              else
     27                WiFi_Mode = 2;
   \                     ??EnddeviceApp_HandleLCD_2:
   \   00002B   7402         MOV     A,#0x2
   \                     ??EnddeviceApp_HandleLCD_1:
   \   00002D   F0           MOVX    @DPTR,A
     28              
     29              
     30              // write the wifi mode    
     31              if(LINKED)
   \   00002E   90....       MOV     DPTR,#LINKED
   \   000031   E0           MOVX    A,@DPTR
   \   000032   6007         JZ      ??EnddeviceApp_HandleLCD_3
     32              {
     33                HalLcdWriteWiFiMod(WiFi_Mode);
   \   000034                ; Setup parameters for call to function HalLcdWriteWiFiMod
   \   000034   90....       MOV     DPTR,#WiFi_Mode
   \   000037   E0           MOVX    A,@DPTR
   \   000038   F9           MOV     R1,A
   \   000039   8002         SJMP    ??EnddeviceApp_HandleLCD_4
     34              }
     35              else
     36              {
     37                HalLcdWriteWiFiMod(3);// not linked to the zigbee net
   \                     ??EnddeviceApp_HandleLCD_3:
   \   00003B                ; Setup parameters for call to function HalLcdWriteWiFiMod
   \   00003B   7903         MOV     R1,#0x3
   \                     ??EnddeviceApp_HandleLCD_4:
   \   00003D   12....       LCALL   ??HalLcdWriteWiFiMod?relay
     38              }
     39             
     40             // write the debug information
     41             if(DebugMode)
   \   000040   90....       MOV     DPTR,#DebugMode
   \   000043   E0           MOVX    A,@DPTR
   \   000044   7003         JNZ     $+5
   \   000046   02....       LJMP    ??EnddeviceApp_HandleLCD_5 & 0xFFFF
     42             { 
     43                PANID = _NIB.nwkPanId;
   \   000049   90....       MOV     DPTR,#_NIB + 33
   \   00004C   E0           MOVX    A,@DPTR
   \   00004D   F8           MOV     R0,A
   \   00004E   A3           INC     DPTR
   \   00004F   E0           MOVX    A,@DPTR
   \   000050   F9           MOV     R1,A
   \   000051   90....       MOV     DPTR,#PANID
   \   000054   E8           MOV     A,R0
   \   000055   F0           MOVX    @DPTR,A
   \   000056   A3           INC     DPTR
   \   000057   E9           MOV     A,R1
   \   000058   F0           MOVX    @DPTR,A
     44                
     45                // write the PANID of the net
     46                uint8 first = PANID / 4096;
     47                uint8 second = PANID / 256 % 16;
   \   000059   540F         ANL     A,#0xf
   \   00005B   FE           MOV     R6,A
     48                uint8 third = PANID / 16 % 16;
   \   00005C   90....       MOV     DPTR,#PANID
   \   00005F   E0           MOVX    A,@DPTR
   \   000060   C4           SWAP    A
   \   000061   540F         ANL     A,#0xf
   \   000063   FF           MOV     R7,A
     49                uint8 fourth = PANID % 16;
   \   000064   E0           MOVX    A,@DPTR
   \   000065   540F         ANL     A,#0xf
   \   000067   F5..         MOV     ?V0 + 0,A
     50                HalLcdWriteChar5x8(first,0,30,TRUE);
   \   000069                ; Setup parameters for call to function HalLcdWriteChar5x8
   \   000069   7C01         MOV     R4,#0x1
   \   00006B   7B1E         MOV     R3,#0x1e
   \   00006D   7A00         MOV     R2,#0x0
   \   00006F   E0           MOVX    A,@DPTR
   \   000070   F5..         MOV     ?V0 + 2,A
   \   000072   A3           INC     DPTR
   \   000073   E0           MOVX    A,@DPTR
   \   000074   F5..         MOV     ?V0 + 3,A
   \   000076   740C         MOV     A,#0xc
   \   000078   78..         MOV     R0,#?V0 + 2
   \   00007A   12....       LCALL   ?US_SHR
   \   00007D   A9..         MOV     R1,?V0 + 2
   \   00007F   12....       LCALL   ??HalLcdWriteChar5x8?relay
     51                HalLcdWriteChar5x8(second,0,35,TRUE);
   \   000082                ; Setup parameters for call to function HalLcdWriteChar5x8
   \   000082   7C01         MOV     R4,#0x1
   \   000084   7B23         MOV     R3,#0x23
   \   000086   7A00         MOV     R2,#0x0
   \   000088   EE           MOV     A,R6
   \   000089   F9           MOV     R1,A
   \   00008A   12....       LCALL   ??HalLcdWriteChar5x8?relay
     52                HalLcdWriteChar5x8(third,0,40,TRUE);
   \   00008D                ; Setup parameters for call to function HalLcdWriteChar5x8
   \   00008D   7C01         MOV     R4,#0x1
   \   00008F   7B28         MOV     R3,#0x28
   \   000091   7A00         MOV     R2,#0x0
   \   000093   EF           MOV     A,R7
   \   000094   F9           MOV     R1,A
   \   000095   12....       LCALL   ??HalLcdWriteChar5x8?relay
     53                HalLcdWriteChar5x8(fourth,0,45,TRUE);
   \   000098                ; Setup parameters for call to function HalLcdWriteChar5x8
   \   000098   7C01         MOV     R4,#0x1
   \   00009A   7B2D         MOV     R3,#0x2d
   \   00009C   7A00         MOV     R2,#0x0
   \   00009E   A9..         MOV     R1,?V0 + 0
   \   0000A0   12....       LCALL   ??HalLcdWriteChar5x8?relay
     54                
     55                // write the change content of deviceID or netID
     56                if(Debug_Blink_Count++ == 3)
   \   0000A3   90....       MOV     DPTR,#Debug_Blink_Count
   \   0000A6   E0           MOVX    A,@DPTR
   \   0000A7   F8           MOV     R0,A
   \   0000A8   7401         MOV     A,#0x1
   \   0000AA   28           ADD     A,R0
   \   0000AB   F0           MOVX    @DPTR,A
   \   0000AC   7403         MOV     A,#0x3
   \   0000AE   68           XRL     A,R0
   \   0000AF   701E         JNZ     ??EnddeviceApp_HandleLCD_5
     57                {
     58                  Debug_Blink_Count = 0;
   \   0000B1   E4           CLR     A
   \   0000B2   F0           MOVX    @DPTR,A
     59                  Debug_Blink ^= 1; // for the blink function
   \   0000B3   90....       MOV     DPTR,#Debug_Blink
   \   0000B6   E0           MOVX    A,@DPTR
   \   0000B7   6401         XRL     A,#0x1
   \   0000B9   F0           MOVX    @DPTR,A
     60                  HalLcdWriteDebug(debugnum,BIT_SEL,ID_OR_NET,TRUE,Debug_Blink);
   \   0000BA                ; Setup parameters for call to function HalLcdWriteDebug
   \   0000BA   FD           MOV     R5,A
   \   0000BB   7C01         MOV     R4,#0x1
   \   0000BD   90....       MOV     DPTR,#ID_OR_NET
   \   0000C0   E0           MOVX    A,@DPTR
   \   0000C1   FB           MOV     R3,A
   \   0000C2   90....       MOV     DPTR,#BIT_SEL
   \   0000C5   E0           MOVX    A,@DPTR
   \   0000C6   FA           MOV     R2,A
   \   0000C7   90....       MOV     DPTR,#debugnum
   \   0000CA   E0           MOVX    A,@DPTR
   \   0000CB   F9           MOV     R1,A
   \   0000CC   12....       LCALL   ??HalLcdWriteDebug?relay
     61                }
     62                
     63             }
     64              
     65              
     66              // write the relay state
     67              HalLcdWriteRelayState(REL_CTL);
   \                     ??EnddeviceApp_HandleLCD_5:
   \   0000CF                ; Setup parameters for call to function HalLcdWriteRelayState
   \   0000CF   A292         MOV     C,0x90.2
   \   0000D1   E4           CLR     A
   \   0000D2   33           RLC     A
   \   0000D3   F9           MOV     R1,A
   \   0000D4   12....       LCALL   ??HalLcdWriteRelayState?relay
     68           
     69              
     70              // write the real temperatrue
     71              if(!Error_Code)// the error doesn't exist
   \   0000D7   90....       MOV     DPTR,#Error_Code
   \   0000DA   E0           MOVX    A,@DPTR
   \   0000DB   F8           MOV     R0,A
   \   0000DC   A3           INC     DPTR
   \   0000DD   E0           MOVX    A,@DPTR
   \   0000DE   F9           MOV     R1,A
   \   0000DF   E8           MOV     A,R0
   \   0000E0   49           ORL     A,R1
   \   0000E1   701C         JNZ     ??EnddeviceApp_HandleLCD_6
     72              {
     73                  if(!POWER)
   \   0000E3   90....       MOV     DPTR,#POWER
   \   0000E6   E0           MOVX    A,@DPTR
   \   0000E7   7005         JNZ     ??EnddeviceApp_HandleLCD_7
     74                  {
     75                     HalLcdWriteRealTemperature(RM_Temperature);
   \                     ??EnddeviceApp_HandleLCD_8:
   \   0000E9                ; Setup parameters for call to function HalLcdWriteRealTemperature
   \   0000E9   90....       MOV     DPTR,#RM_Temperature
   \   0000EC   8009         SJMP    ??EnddeviceApp_HandleLCD_9
     76                  }
     77                  else
     78                  {
     79                    if(Real_Tem_Mod)
   \                     ??EnddeviceApp_HandleLCD_7:
   \   0000EE   90....       MOV     DPTR,#Real_Tem_Mod
   \   0000F1   E0           MOVX    A,@DPTR
   \   0000F2   70F5         JNZ     ??EnddeviceApp_HandleLCD_8
     80                    {
     81                      HalLcdWriteRealTemperature(RM_Temperature);//SetRM_Temperature * 10);
     82                    }
     83                    else
     84                    {
     85                      HalLcdWriteRealTemperature(FL_Temperature);
   \   0000F4                ; Setup parameters for call to function HalLcdWriteRealTemperature
   \   0000F4   90....       MOV     DPTR,#FL_Temperature
   \                     ??EnddeviceApp_HandleLCD_9:
   \   0000F7   E0           MOVX    A,@DPTR
   \   0000F8   FA           MOV     R2,A
   \   0000F9   A3           INC     DPTR
   \   0000FA   E0           MOVX    A,@DPTR
   \   0000FB   FB           MOV     R3,A
   \   0000FC   12....       LCALL   ??HalLcdWriteRealTemperature?relay
     86                    }
     87                 }
     88               }
     89           }
   \                     ??EnddeviceApp_HandleLCD_6:
   \   0000FF   7F04         MOV     R7,#0x4
   \   000101   02....       LJMP    ?BANKED_LEAVE_XDATA
   \   000104                REQUIRE _A_P1

   \                                 In  segment BANK_RELAYS, align 1
   \                     ??EnddeviceApp_HandleLCD?relay:
   \   000000   12....       LCALL   ?BDISPATCH
   \   000003   ......       DC24    EnddeviceApp_HandleLCD
     90            
     91          
     92          
     93          
     94          

   Maximum stack usage in bytes:

     Function                       ISTACK PSTACK XSTACK
     --------                       ------ ------ ------
     EnddeviceApp_HandleLCD             0      0     12
       -> HalLcdWriteWiFiMod            0      0     24
       -> HalLcdWriteWiFiMod            0      0     24
       -> HalLcdWriteChar5x8            0      0     24
       -> HalLcdWriteChar5x8            0      0     24
       -> HalLcdWriteChar5x8            0      0     24
       -> HalLcdWriteChar5x8            0      0     24
       -> HalLcdWriteDebug              0      0     24
       -> HalLcdWriteRelayState         0      0     24
       -> HalLcdWriteRealTemperature
                                        0      0     24
       -> HalLcdWriteRealTemperature
                                        0      0     24


   Segment part sizes:

     Function/Label                 Bytes
     --------------                 -----
     _A_P1                             1
     EnddeviceApp_HandleLCD          260
     ??EnddeviceApp_HandleLCD?relay    6

 
 260 bytes in segment BANKED_CODE
   6 bytes in segment BANK_RELAYS
   1 byte  in segment SFR_AN
 
 266 bytes of CODE memory
   0 bytes of DATA memory (+ 1 byte shared)

Errors: none
Warnings: none
