///////////////////////////////////////////////////////////////////////////////
//                                                                            /
// IAR C/C++ Compiler V8.10.1.10194/W32 for 8051        20/Apr/2015  19:31:47 /
// Copyright 2004-2011 IAR Systems AB.                                        /
//                                                                            /
//    Core               =  plain                                             /
//    Code model         =  banked                                            /
//    Data model         =  large                                             /
//    Calling convention =  xdata reentrant                                   /
//    Constant location  =  data_rom                                          /
//    Dptr setup         =  1,16                                              /
//    Source file        =  C:\Users\William\Desktop\±œ“µ…Ëº∆\SRC\EndDevice   /
//                          Project for editing\Components\hal\common\hal_dri /
//                          vers.c                                            /
//    Command line       =  -f "C:\Users\William\Desktop\±œ“µ…Ëº∆\SRC\EndDevi /
//                          ce Project for editing\Projects\zstack\MyEnddevic /
//                          e\EndDevice\CC2530DB\..\..\..\Tools\CC2530DB\f8wE /
//                          ndev.cfg" (-DCPU32MHZ -DROOT=__near_func          /
//                          -DMAC_CFG_TX_DATA_MAX=3 -DMAC_CFG_TX_MAX=6        /
//                          -DMAC_CFG_RX_MAX=3) -f "C:\Users\William\Desktop\ /
//                          ±œ“µ…Ëº∆\SRC\EndDevice Project for                /
//                          editing\Projects\zstack\MyEnddevice\EndDevice\CC2 /
//                          530DB\..\..\..\Tools\CC2530DB\f8wConfig.cfg"      /
//                          (-DZIGBEEPRO -DSECURE=0 -DZG_SECURE_DYNAMIC=0     /
//                          -DREFLECTOR -DDEFAULT_CHANLIST=0x02000000         /
//                          -DZDAPP_CONFIG_PAN_ID=0xFFFF                      /
//                          -DNWK_START_DELAY=100 -DEXTENDED_JOINING_RANDOM_M /
//                          ASK=0x007F -DBEACON_REQUEST_DELAY=100             /
//                          -DBEACON_REQ_DELAY_MASK=0x00FF                    /
//                          -DLINK_STATUS_JITTER_MASK=0x007F                  /
//                          -DROUTE_EXPIRY_TIME=30 -DAPSC_ACK_WAIT_DURATION_P /
//                          OLLED=3000 -DNWK_INDIRECT_MSG_TIMEOUT=7           /
//                          -DMAX_RREQ_ENTRIES=8 -DAPSC_MAX_FRAME_RETRIES=3   /
//                          -DNWK_MAX_DATA_RETRIES=2                          /
//                          -DMAX_POLL_FAILURE_RETRIES=2 -DMAX_BCAST=9        /
//                          -DAPS_MAX_GROUPS=16 -DMAX_RTG_ENTRIES=40          /
//                          -DNWK_MAX_BINDING_ENTRIES=4                       /
//                          -DMAX_BINDING_CLUSTER_IDS=4                       /
//                          "-DDEFAULT_KEY={0x01, 0x03, 0x05, 0x07, 0x09,     /
//                          0x0B, 0x0D, 0x0F, 0x00, 0x02, 0x04, 0x06, 0x08,   /
//                          0x0A, 0x0C, 0x0D}" -DMAC_MAX_FRAME_SIZE=116       /
//                          -DZDNWKMGR_MIN_TRANSMISSIONS=20 "-DCONST=const    /
//                          __code" -DGENERIC=__generic                       /
//                          -DRFD_RCVC_ALWAYS_ON=FALSE -DPOLL_RATE=1000       /
//                          -DQUEUED_POLL_RATE=100 -DRESPONSE_POLL_RATE=100)  /
//                          -DREJOIN_POLL_RATE=440 "C:\Users\William\Desktop\ /
//                          ±œ“µ…Ëº∆\SRC\EndDevice Project for                /
//                          editing\Components\hal\common\hal_drivers.c" -D   /
//                          NWK_AUTO_POLL -D NV_RESTORE=1 -D xZTOOL_P1 -D     /
//                          xMT_TASK -D xMT_SYS_FUNC -D xMT_ZDO_FUNC -D       /
//                          xLCD_SUPPORTED=DEBUG -lC                          /
//                          "C:\Users\William\Desktop\±œ“µ…Ëº∆\SRC\EndDevice  /
//                          Project for editing\Projects\zstack\MyEnddevice\E /
//                          ndDevice\CC2530DB\EndDeviceEB\List\" -lA          /
//                          "C:\Users\William\Desktop\±œ“µ…Ëº∆\SRC\EndDevice  /
//                          Project for editing\Projects\zstack\MyEnddevice\E /
//                          ndDevice\CC2530DB\EndDeviceEB\List\"              /
//                          --diag_suppress Pe001,Pa010 -o                    /
//                          "C:\Users\William\Desktop\±œ“µ…Ëº∆\SRC\EndDevice  /
//                          Project for editing\Projects\zstack\MyEnddevice\E /
//                          ndDevice\CC2530DB\EndDeviceEB\Obj\" -e            /
//                          --no_code_motion --debug --core=plain             /
//                          --dptr=16,1 --data_model=large                    /
//                          --code_model=banked --calling_convention=xdata_re /
//                          entrant --place_constants=data_rom                /
//                          --nr_virtual_regs 16 -I                           /
//                          "C:\Users\William\Desktop\±œ“µ…Ëº∆\SRC\EndDevice  /
//                          Project for editing\Projects\zstack\MyEnddevice\E /
//                          ndDevice\CC2530DB\" -I "C:\Users\William\Desktop\ /
//                          ±œ“µ…Ëº∆\SRC\EndDevice Project for                /
//                          editing\Projects\zstack\MyEnddevice\EndDevice\CC2 /
//                          530DB\..\Source\" -I "C:\Users\William\Desktop\±œ /
//                          “µ…Ëº∆\SRC\EndDevice Project for                  /
//                          editing\Projects\zstack\MyEnddevice\EndDevice\CC2 /
//                          530DB\..\..\..\ZMain\TI2530DB\" -I                /
//                          "C:\Users\William\Desktop\±œ“µ…Ëº∆\SRC\EndDevice  /
//                          Project for editing\Projects\zstack\MyEnddevice\E /
//                          ndDevice\CC2530DB\..\..\..\..\..\Components\hal\i /
//                          nclude\" -I "C:\Users\William\Desktop\±œ“µ…Ëº∆\SR /
//                          C\EndDevice Project for                           /
//                          editing\Projects\zstack\MyEnddevice\EndDevice\CC2 /
//                          530DB\..\..\..\..\..\Components\hal\target\CC2530 /
//                          EB\" -I "C:\Users\William\Desktop\±œ“µ…Ëº∆\SRC\En /
//                          dDevice Project for editing\Projects\zstack\MyEnd /
//                          device\EndDevice\CC2530DB\..\..\..\..\..\Componen /
//                          ts\mac\include\" -I "C:\Users\William\Desktop\±œ“ /
//                          µ…Ëº∆\SRC\EndDevice Project for                   /
//                          editing\Projects\zstack\MyEnddevice\EndDevice\CC2 /
//                          530DB\..\..\..\..\..\Components\mac\high_level\"  /
//                          -I "C:\Users\William\Desktop\±œ“µ…Ëº∆\SRC\EndDevi /
//                          ce Project for editing\Projects\zstack\MyEnddevic /
//                          e\EndDevice\CC2530DB\..\..\..\..\..\Components\ma /
//                          c\low_level\srf04\" -I "C:\Users\William\Desktop\ /
//                          ±œ“µ…Ëº∆\SRC\EndDevice Project for                /
//                          editing\Projects\zstack\MyEnddevice\EndDevice\CC2 /
//                          530DB\..\..\..\..\..\Components\mac\low_level\srf /
//                          04\single_chip\" -I "C:\Users\William\Desktop\±œ“ /
//                          µ…Ëº∆\SRC\EndDevice Project for                   /
//                          editing\Projects\zstack\MyEnddevice\EndDevice\CC2 /
//                          530DB\..\..\..\..\..\Components\mt\" -I           /
//                          "C:\Users\William\Desktop\±œ“µ…Ëº∆\SRC\EndDevice  /
//                          Project for editing\Projects\zstack\MyEnddevice\E /
//                          ndDevice\CC2530DB\..\..\..\..\..\Components\osal\ /
//                          include\" -I "C:\Users\William\Desktop\±œ“µ…Ëº∆\S /
//                          RC\EndDevice Project for                          /
//                          editing\Projects\zstack\MyEnddevice\EndDevice\CC2 /
//                          530DB\..\..\..\..\..\Components\services\saddr\"  /
//                          -I "C:\Users\William\Desktop\±œ“µ…Ëº∆\SRC\EndDevi /
//                          ce Project for editing\Projects\zstack\MyEnddevic /
//                          e\EndDevice\CC2530DB\..\..\..\..\..\Components\se /
//                          rvices\sdata\" -I "C:\Users\William\Desktop\±œ“µ… /
//                          Ëº∆\SRC\EndDevice Project for                     /
//                          editing\Projects\zstack\MyEnddevice\EndDevice\CC2 /
//                          530DB\..\..\..\..\..\Components\stack\af\" -I     /
//                          "C:\Users\William\Desktop\±œ“µ…Ëº∆\SRC\EndDevice  /
//                          Project for editing\Projects\zstack\MyEnddevice\E /
//                          ndDevice\CC2530DB\..\..\..\..\..\Components\stack /
//                          \nwk\" -I "C:\Users\William\Desktop\±œ“µ…Ëº∆\SRC\ /
//                          EndDevice Project for editing\Projects\zstack\MyE /
//                          nddevice\EndDevice\CC2530DB\..\..\..\..\..\Compon /
//                          ents\stack\sapi\" -I "C:\Users\William\Desktop\±œ /
//                          “µ…Ëº∆\SRC\EndDevice Project for                  /
//                          editing\Projects\zstack\MyEnddevice\EndDevice\CC2 /
//                          530DB\..\..\..\..\..\Components\stack\sec\" -I    /
//                          "C:\Users\William\Desktop\±œ“µ…Ëº∆\SRC\EndDevice  /
//                          Project for editing\Projects\zstack\MyEnddevice\E /
//                          ndDevice\CC2530DB\..\..\..\..\..\Components\stack /
//                          \sys\" -I "C:\Users\William\Desktop\±œ“µ…Ëº∆\SRC\ /
//                          EndDevice Project for editing\Projects\zstack\MyE /
//                          nddevice\EndDevice\CC2530DB\..\..\..\..\..\Compon /
//                          ents\stack\zdo\" -I "C:\Users\William\Desktop\±œ“ /
//                          µ…Ëº∆\SRC\EndDevice Project for                   /
//                          editing\Projects\zstack\MyEnddevice\EndDevice\CC2 /
//                          530DB\..\..\..\..\..\Components\zmac\" -I         /
//                          "C:\Users\William\Desktop\±œ“µ…Ëº∆\SRC\EndDevice  /
//                          Project for editing\Projects\zstack\MyEnddevice\E /
//                          ndDevice\CC2530DB\..\..\..\..\..\Components\zmac\ /
//                          f8w\" -Ohz                                        /
//    List file          =  C:\Users\William\Desktop\±œ“µ…Ëº∆\SRC\EndDevice   /
//                          Project for editing\Projects\zstack\MyEnddevice\E /
//                          ndDevice\CC2530DB\EndDeviceEB\List\hal_drivers.s5 /
//                          1                                                 /
//                                                                            /
//                                                                            /
///////////////////////////////////////////////////////////////////////////////

        NAME hal_drivers

        RTMODEL "__SystemLibrary", "CLib"
        RTMODEL "__calling_convention", "xdata_reentrant"
        RTMODEL "__code_model", "banked"
        RTMODEL "__core", "plain"
        RTMODEL "__data_model", "large"
        RTMODEL "__dptr_size", "16"
        RTMODEL "__extended_stack", "disabled"
        RTMODEL "__location_for_constants", "data"
        RTMODEL "__number_of_dptrs", "1"
        RTMODEL "__rt_version", "1"

        RSEG DOVERLAY:DATA:NOROOT(0)
        RSEG IOVERLAY:IDATA:NOROOT(0)
        RSEG ISTACK:IDATA:NOROOT(0)
        RSEG PSTACK:XDATA:NOROOT(0)
        RSEG XSTACK:XDATA:NOROOT(0)

        EXTERN ?BANKED_ENTER_XDATA
        EXTERN ?BANKED_LEAVE_XDATA
        EXTERN ?BDISPATCH
        EXTERN ?BRET
        EXTERN __INIT_XDATA_Z

        PUBLIC ??HalDriverInit?relay
        FUNCTION ??HalDriverInit?relay,0203H
        PUBLIC ??Hal_Init?relay
        FUNCTION ??Hal_Init?relay,0203H
        PUBLIC ??Hal_ProcessEvent?relay
        FUNCTION ??Hal_ProcessEvent?relay,0203H
        PUBLIC ??Hal_ProcessPoll?relay
        FUNCTION ??Hal_ProcessPoll?relay,0203H
        PUBLIC HalDriverInit
        FUNCTION HalDriverInit,021203H
        ARGFRAME XSTACK, 0, STACK
        LOCFRAME ISTACK, 2, STACK
        PUBLIC Hal_Init
        FUNCTION Hal_Init,0203H
        ARGFRAME XSTACK, 0, STACK
        LOCFRAME ISTACK, 2, STACK
        PUBLIC Hal_ProcessEvent
        FUNCTION Hal_ProcessEvent,021203H
        ARGFRAME XSTACK, 0, STACK
        LOCFRAME XSTACK, 10, STACK
        PUBLIC Hal_ProcessPoll
        FUNCTION Hal_ProcessPoll,0203H
        ARGFRAME XSTACK, 0, STACK
        PUBLIC Hal_TaskID
        
        CFI Names cfiNames0
        CFI StackFrame CFA_SP SP IDATA
        CFI StackFrame CFA_PSP16 PSP16 XDATA
        CFI StackFrame CFA_XSP16 XSP16 XDATA
        CFI StaticOverlayFrame CFA_IOVERLAY IOVERLAY
        CFI StaticOverlayFrame CFA_DOVERLAY DOVERLAY
        CFI Resource `PSW.CY`:1, `B.BR0`:1, `B.BR1`:1, `B.BR2`:1, `B.BR3`:1
        CFI Resource `B.BR4`:1, `B.BR5`:1, `B.BR6`:1, `B.BR7`:1, `VB.BR8`:1
        CFI Resource `VB.BR9`:1, `VB.BR10`:1, `VB.BR11`:1, `VB.BR12`:1
        CFI Resource `VB.BR13`:1, `VB.BR14`:1, `VB.BR15`:1, VB:8, B:8, A:8
        CFI Resource PSW:8, DPL0:8, DPH0:8, R0:8, R1:8, R2:8, R3:8, R4:8, R5:8
        CFI Resource R6:8, R7:8, V0:8, V1:8, V2:8, V3:8, V4:8, V5:8, V6:8, V7:8
        CFI Resource V8:8, V9:8, V10:8, V11:8, V12:8, V13:8, V14:8, V15:8, SP:8
        CFI Resource PSPH:8, PSPL:8, PSP16:16, XSPH:8, XSPL:8, XSP16:16
        CFI VirtualResource ?RET:24
        CFI Resource ?BRET_EXT:8
        CFI VirtualResource ?RET_HIGH:8, ?RET_LOW:8
        CFI ResourceParts PSP16 PSPH, PSPL
        CFI ResourceParts XSP16 XSPH, XSPL
        CFI ResourceParts ?RET ?BRET_EXT, ?RET_HIGH, ?RET_LOW
        CFI EndNames cfiNames0
        
        CFI Common cfiCommon0 Using cfiNames0
        CFI CodeAlign 1
        CFI DataAlign -1
        CFI ReturnAddress ?RET CODE
        CFI CFA_DOVERLAY Used
        CFI CFA_IOVERLAY Used
        CFI CFA_SP SP+-3
        CFI CFA_PSP16 PSP16+0
        CFI CFA_XSP16 XSP16+0
        CFI `PSW.CY` SameValue
        CFI `B.BR0` SameValue
        CFI `B.BR1` SameValue
        CFI `B.BR2` SameValue
        CFI `B.BR3` SameValue
        CFI `B.BR4` SameValue
        CFI `B.BR5` SameValue
        CFI `B.BR6` SameValue
        CFI `B.BR7` SameValue
        CFI `VB.BR8` SameValue
        CFI `VB.BR9` SameValue
        CFI `VB.BR10` SameValue
        CFI `VB.BR11` SameValue
        CFI `VB.BR12` SameValue
        CFI `VB.BR13` SameValue
        CFI `VB.BR14` SameValue
        CFI `VB.BR15` SameValue
        CFI VB SameValue
        CFI B Undefined
        CFI A Undefined
        CFI PSW SameValue
        CFI DPL0 SameValue
        CFI DPH0 SameValue
        CFI R0 Undefined
        CFI R1 Undefined
        CFI R2 Undefined
        CFI R3 Undefined
        CFI R4 Undefined
        CFI R5 Undefined
        CFI R6 SameValue
        CFI R7 SameValue
        CFI V0 SameValue
        CFI V1 SameValue
        CFI V2 SameValue
        CFI V3 SameValue
        CFI V4 SameValue
        CFI V5 SameValue
        CFI V6 SameValue
        CFI V7 SameValue
        CFI V8 SameValue
        CFI V9 SameValue
        CFI V10 SameValue
        CFI V11 SameValue
        CFI V12 SameValue
        CFI V13 SameValue
        CFI V14 SameValue
        CFI V15 SameValue
        CFI PSPH Undefined
        CFI PSPL Undefined
        CFI XSPH Undefined
        CFI XSPL Undefined
        CFI ?RET Concat
        CFI ?BRET_EXT Frame(CFA_SP, 3)
        CFI ?RET_HIGH Frame(CFA_SP, 2)
        CFI ?RET_LOW Frame(CFA_SP, 1)
        CFI EndCommon cfiCommon0
        
HalAdcInit          SYMBOL "HalAdcInit"
HalDmaInit          SYMBOL "HalDmaInit"
HalAesInit          SYMBOL "HalAesInit"
HalLcdInit          SYMBOL "HalLcdInit"
HalKeyInit          SYMBOL "HalKeyInit"
osal_msg_receive    SYMBOL "osal_msg_receive"
osal_msg_deallocate SYMBOL "osal_msg_deallocate"
HalKeyPoll          SYMBOL "HalKeyPoll"
osal_start_timerEx  SYMBOL "osal_start_timerEx"
??HalAdcInit?relay  SYMBOL "?relay", HalAdcInit
??HalAesInit?relay  SYMBOL "?relay", HalAesInit
??HalDmaInit?relay  SYMBOL "?relay", HalDmaInit
??HalKeyInit?relay  SYMBOL "?relay", HalKeyInit
??HalKeyPoll?relay  SYMBOL "?relay", HalKeyPoll
??HalLcdInit?relay  SYMBOL "?relay", HalLcdInit
??osal_msg_deallocate?relay SYMBOL "?relay", osal_msg_deallocate
??osal_msg_receive?relay SYMBOL "?relay", osal_msg_receive
??osal_start_timerEx?relay SYMBOL "?relay", osal_start_timerEx
HalDriverInit       SYMBOL "HalDriverInit"
??HalDriverInit?relay SYMBOL "?relay", HalDriverInit
Hal_Init            SYMBOL "Hal_Init"
??Hal_Init?relay    SYMBOL "?relay", Hal_Init
Hal_ProcessEvent    SYMBOL "Hal_ProcessEvent"
??Hal_ProcessEvent?relay SYMBOL "?relay", Hal_ProcessEvent
Hal_ProcessPoll     SYMBOL "Hal_ProcessPoll"
??Hal_ProcessPoll?relay SYMBOL "?relay", Hal_ProcessPoll

        EXTERN HalAdcInit
        FUNCTION HalAdcInit,0202H
        ARGFRAME ISTACK, 2, STACK
        ARGFRAME PSTACK, 0, STACK
        ARGFRAME XSTACK, 0, STACK
        ARGFRAME IOVERLAY, 0, STATIC
        ARGFRAME DOVERLAY, 0, STATIC
        EXTERN HalDmaInit
        FUNCTION HalDmaInit,0202H
        ARGFRAME ISTACK, 2, STACK
        ARGFRAME PSTACK, 0, STACK
        ARGFRAME XSTACK, 0, STACK
        ARGFRAME IOVERLAY, 0, STATIC
        ARGFRAME DOVERLAY, 0, STATIC
        EXTERN HalAesInit
        FUNCTION HalAesInit,0202H
        ARGFRAME ISTACK, 2, STACK
        ARGFRAME PSTACK, 0, STACK
        ARGFRAME XSTACK, 0, STACK
        ARGFRAME IOVERLAY, 0, STATIC
        ARGFRAME DOVERLAY, 0, STATIC
        EXTERN HalLcdInit
        FUNCTION HalLcdInit,0202H
        ARGFRAME ISTACK, 2, STACK
        ARGFRAME PSTACK, 0, STACK
        ARGFRAME XSTACK, 0, STACK
        ARGFRAME IOVERLAY, 0, STATIC
        ARGFRAME DOVERLAY, 0, STATIC
        EXTERN HalKeyInit
        FUNCTION HalKeyInit,0202H
        ARGFRAME ISTACK, 2, STACK
        ARGFRAME PSTACK, 0, STACK
        ARGFRAME XSTACK, 0, STACK
        ARGFRAME IOVERLAY, 0, STATIC
        ARGFRAME DOVERLAY, 0, STATIC
        EXTERN osal_msg_receive
        FUNCTION osal_msg_receive,0202H
        ARGFRAME ISTACK, 0, STACK
        ARGFRAME PSTACK, 0, STACK
        ARGFRAME XSTACK, 10, STACK
        ARGFRAME IOVERLAY, 0, STATIC
        ARGFRAME DOVERLAY, 0, STATIC
        EXTERN osal_msg_deallocate
        FUNCTION osal_msg_deallocate,0202H
        ARGFRAME ISTACK, 0, STACK
        ARGFRAME PSTACK, 0, STACK
        ARGFRAME XSTACK, 10, STACK
        ARGFRAME IOVERLAY, 0, STATIC
        ARGFRAME DOVERLAY, 0, STATIC
        EXTERN HalKeyPoll
        FUNCTION HalKeyPoll,0202H
        ARGFRAME ISTACK, 0, STACK
        ARGFRAME PSTACK, 0, STACK
        ARGFRAME XSTACK, 10, STACK
        ARGFRAME IOVERLAY, 0, STATIC
        ARGFRAME DOVERLAY, 0, STATIC
        EXTERN osal_start_timerEx
        FUNCTION osal_start_timerEx,0202H
        ARGFRAME ISTACK, 0, STACK
        ARGFRAME PSTACK, 0, STACK
        ARGFRAME XSTACK, 10, STACK
        ARGFRAME IOVERLAY, 0, STATIC
        ARGFRAME DOVERLAY, 0, STATIC
        EXTERN ??HalAdcInit?relay
        FUNCTION ??HalAdcInit?relay,00H
        EXTERN ??HalAesInit?relay
        FUNCTION ??HalAesInit?relay,00H
        EXTERN ??HalDmaInit?relay
        FUNCTION ??HalDmaInit?relay,00H
        EXTERN ??HalKeyInit?relay
        FUNCTION ??HalKeyInit?relay,00H
        EXTERN ??HalKeyPoll?relay
        FUNCTION ??HalKeyPoll?relay,00H
        EXTERN ??HalLcdInit?relay
        FUNCTION ??HalLcdInit?relay,00H
        EXTERN ??osal_msg_deallocate?relay
        FUNCTION ??osal_msg_deallocate?relay,00H
        EXTERN ??osal_msg_receive?relay
        FUNCTION ??osal_msg_receive?relay,00H
        EXTERN ??osal_start_timerEx?relay
        FUNCTION ??osal_start_timerEx?relay,00H
        EXTERN Hal_KeyIntEnable

// C:\Users\William\Desktop\±œ“µ…Ëº∆\SRC\EndDevice Project for editing\Components\hal\common\hal_drivers.c
//    1 /**************************************************************************************************
//    2   Filename:       hal_drivers.c
//    3   Revised:        $Date: 2007-07-06 10:42:24 -0700 (Fri, 06 Jul 2007) $
//    4   Revision:       $Revision: 13579 $
//    5 
//    6   Description:    This file contains the interface to the Drivers Service.
//    7 
//    8 
//    9   Copyright 2005-2010 Texas Instruments Incorporated. All rights reserved.
//   10 
//   11   IMPORTANT: Your use of this Software is limited to those specific rights
//   12   granted under the terms of a software license agreement between the user
//   13   who downloaded the software, his/her employer (which must be your employer)
//   14   and Texas Instruments Incorporated (the "License").  You may not use this
//   15   Software unless you agree to abide by the terms of the License. The License
//   16   limits your use, and you acknowledge, that the Software may not be modified,
//   17   copied or distributed unless embedded on a Texas Instruments microcontroller
//   18   or used solely and exclusively in conjunction with a Texas Instruments radio
//   19   frequency transceiver, which is integrated into your product.  Other than for
//   20   the foregoing purpose, you may not use, reproduce, copy, prepare derivative
//   21   works of, modify, distribute, perform, display or sell this Software and/or
//   22   its documentation for any purpose.
//   23 
//   24   YOU FURTHER ACKNOWLEDGE AND AGREE THAT THE SOFTWARE AND DOCUMENTATION ARE
//   25   PROVIDED ìAS IS?WITHOUT WARRANTY OF ANY KIND, EITHER EXPRESS OR IMPLIED,
//   26   INCLUDING WITHOUT LIMITATION, ANY WARRANTY OF MERCHANTABILITY, TITLE,
//   27   NON-INFRINGEMENT AND FITNESS FOR A PARTICULAR PURPOSE. IN NO EVENT SHALL
//   28   TEXAS INSTRUMENTS OR ITS LICENSORS BE LIABLE OR OBLIGATED UNDER CONTRACT,
//   29   NEGLIGENCE, STRICT LIABILITY, CONTRIBUTION, BREACH OF WARRANTY, OR OTHER
//   30   LEGAL EQUITABLE THEORY ANY DIRECT OR INDIRECT DAMAGES OR EXPENSES
//   31   INCLUDING BUT NOT LIMITED TO ANY INCIDENTAL, SPECIAL, INDIRECT, PUNITIVE
//   32   OR CONSEQUENTIAL DAMAGES, LOST PROFITS OR LOST DATA, COST OF PROCUREMENT
//   33   OF SUBSTITUTE GOODS, TECHNOLOGY, SERVICES, OR ANY CLAIMS BY THIRD PARTIES
//   34   (INCLUDING BUT NOT LIMITED TO ANY DEFENSE THEREOF), OR OTHER SIMILAR COSTS.
//   35 
//   36   Should you have any questions regarding your right to use this Software,
//   37   contact Texas Instruments Incorporated at www.TI.com.
//   38 **************************************************************************************************/
//   39 
//   40 
//   41 /**************************************************************************************************
//   42  *                                            INCLUDES
//   43  **************************************************************************************************/
//   44 #include "hal_types.h"
//   45 #include "OSAL.h"
//   46 #include "hal_drivers.h"
//   47 #include "hal_adc.h"
//   48 #if (defined HAL_DMA) && (HAL_DMA == TRUE)
//   49   #include "hal_dma.h"
//   50 #endif
//   51 #include "hal_key.h"
//   52 #include "hal_lcd.h"
//   53 #include "hal_timer.h"
//   54 #include "hal_uart.h"
//   55 #include "hal_sleep.h"
//   56 #if (defined HAL_AES) && (HAL_AES == TRUE)
//   57   #include "hal_aes.h"
//   58 #endif
//   59 
//   60 #if (defined HAL_SPI) && (HAL_SPI == TRUE)
//   61  // #include "hal_spi.h"
//   62 #endif
//   63 #if (defined HAL_HID) && (HAL_HID == TRUE)
//   64   #include "usb_hid.h"
//   65 #endif
//   66 
//   67 #ifdef CC2591_COMPRESSION_WORKAROUND
//   68   #include "mac_rx.h"
//   69 #endif
//   70 
//   71 /**************************************************************************************************
//   72  *                                            MACROS
//   73  **************************************************************************************************/
//   74 
//   75 
//   76 
//   77 /**************************************************************************************************
//   78  *                                          CONSTANTS
//   79  **************************************************************************************************/
//   80 
//   81 
//   82 /**************************************************************************************************
//   83  *                                          TYPEDEFS
//   84  **************************************************************************************************/
//   85 
//   86 
//   87 /**************************************************************************************************
//   88  *                                      GLOBAL VARIABLES
//   89  **************************************************************************************************/

        RSEG XDATA_Z:XDATA:NOROOT(0)
        DATA8
//   90 uint8 Hal_TaskID;
Hal_TaskID:
        DS 1
        REQUIRE __INIT_XDATA_Z
//   91 
//   92 extern void HalLedUpdate( void ); /* Notes: This for internal only so it shouldn't be in hal_led.h */
//   93 
//   94 /**************************************************************************************************
//   95  *                                      FUNCTIONS - API
//   96  **************************************************************************************************/
//   97 
//   98 /**************************************************************************************************
//   99  * @fn      Hal_Init
//  100  *
//  101  * @brief   Hal Initialization function.
//  102  *
//  103  * @param   task_id - Hal TaskId
//  104  *
//  105  * @return  None
//  106  **************************************************************************************************/

        RSEG BANKED_CODE:CODE:NOROOT(0)
//  107 void Hal_Init( uint8 task_id )
Hal_Init:
        CFI Block cfiBlock0 Using cfiCommon0
        CFI Function Hal_Init
        CODE
//  108 {
        PUSH    DPL
        CFI DPL0 Frame(CFA_SP, 4)
        CFI CFA_SP SP+-4
        PUSH    DPH
        CFI DPH0 Frame(CFA_SP, 5)
        CFI CFA_SP SP+-5
        ; Saved register size: 2
        ; Auto size: 0
//  109   /* Register task ID */
//  110   Hal_TaskID = task_id;
        MOV     A,R1
        MOV     DPTR,#Hal_TaskID
        MOVX    @DPTR,A
        CFI EndBlock cfiBlock0
//  111   
//  112 #ifdef CC2591_COMPRESSION_WORKAROUND  
//  113   osal_start_reload_timer( Hal_TaskID, PERIOD_RSSI_RESET_EVT, PERIOD_RSSI_RESET_TIMEOUT );
//  114 #endif  
//  115 }
        REQUIRE ?Subroutine0
        ; // Fall through to label ?Subroutine0

        RSEG BANKED_CODE:CODE:NOROOT(0)
?Subroutine0:
        CFI Block cfiBlock1 Using cfiCommon0
        CFI NoFunction
        CFI CFA_SP SP+-5
        CFI DPL0 Frame(CFA_SP, 4)
        CFI DPH0 Frame(CFA_SP, 5)
        POP     DPH
        CFI CFA_SP SP+-4
        CFI DPH0 SameValue
        POP     DPL
        CFI CFA_SP SP+-3
        CFI DPL0 SameValue
        LJMP    ?BRET
        CFI EndBlock cfiBlock1
//  116 
//  117 /**************************************************************************************************
//  118  * @fn      Hal_DriverInit
//  119  *
//  120  * @brief   Initialize HW - These need to be initialized before anyone.
//  121  *
//  122  * @param   task_id - Hal TaskId
//  123  *
//  124  * @return  None
//  125  **************************************************************************************************/

        RSEG BANKED_CODE:CODE:NOROOT(0)
//  126 void HalDriverInit (void)
HalDriverInit:
        CFI Block cfiBlock2 Using cfiCommon0
        CFI Function HalDriverInit
        CODE
//  127 {
        FUNCALL HalDriverInit, HalAdcInit
        LOCFRAME ISTACK, 2, STACK
        LOCFRAME PSTACK, 0, STACK
        LOCFRAME XSTACK, 0, STACK
        LOCFRAME IOVERLAY, 0, STATIC
        LOCFRAME DOVERLAY, 0, STATIC
        ARGFRAME ISTACK, 2, STACK
        ARGFRAME PSTACK, 0, STACK
        ARGFRAME XSTACK, 0, STACK
        ARGFRAME IOVERLAY, 0, STATIC
        ARGFRAME DOVERLAY, 0, STATIC
        FUNCALL HalDriverInit, HalDmaInit
        LOCFRAME ISTACK, 2, STACK
        LOCFRAME PSTACK, 0, STACK
        LOCFRAME XSTACK, 0, STACK
        LOCFRAME IOVERLAY, 0, STATIC
        LOCFRAME DOVERLAY, 0, STATIC
        ARGFRAME ISTACK, 2, STACK
        ARGFRAME PSTACK, 0, STACK
        ARGFRAME XSTACK, 0, STACK
        ARGFRAME IOVERLAY, 0, STATIC
        ARGFRAME DOVERLAY, 0, STATIC
        FUNCALL HalDriverInit, HalAesInit
        LOCFRAME ISTACK, 2, STACK
        LOCFRAME PSTACK, 0, STACK
        LOCFRAME XSTACK, 0, STACK
        LOCFRAME IOVERLAY, 0, STATIC
        LOCFRAME DOVERLAY, 0, STATIC
        ARGFRAME ISTACK, 2, STACK
        ARGFRAME PSTACK, 0, STACK
        ARGFRAME XSTACK, 0, STACK
        ARGFRAME IOVERLAY, 0, STATIC
        ARGFRAME DOVERLAY, 0, STATIC
        FUNCALL HalDriverInit, HalLcdInit
        LOCFRAME ISTACK, 2, STACK
        LOCFRAME PSTACK, 0, STACK
        LOCFRAME XSTACK, 0, STACK
        LOCFRAME IOVERLAY, 0, STATIC
        LOCFRAME DOVERLAY, 0, STATIC
        ARGFRAME ISTACK, 2, STACK
        ARGFRAME PSTACK, 0, STACK
        ARGFRAME XSTACK, 0, STACK
        ARGFRAME IOVERLAY, 0, STATIC
        ARGFRAME DOVERLAY, 0, STATIC
        FUNCALL HalDriverInit, HalKeyInit
        LOCFRAME ISTACK, 2, STACK
        LOCFRAME PSTACK, 0, STACK
        LOCFRAME XSTACK, 0, STACK
        LOCFRAME IOVERLAY, 0, STATIC
        LOCFRAME DOVERLAY, 0, STATIC
        ARGFRAME ISTACK, 2, STACK
        ARGFRAME PSTACK, 0, STACK
        ARGFRAME XSTACK, 0, STACK
        ARGFRAME IOVERLAY, 0, STATIC
        ARGFRAME DOVERLAY, 0, STATIC
        PUSH    DPL
        CFI DPL0 Frame(CFA_SP, 4)
        CFI CFA_SP SP+-4
        PUSH    DPH
        CFI DPH0 Frame(CFA_SP, 5)
        CFI CFA_SP SP+-5
        ; Saved register size: 2
        ; Auto size: 0
//  128   /* TIMER */
//  129 #if (defined HAL_TIMER) && (HAL_TIMER == TRUE)
//  130   #error "The hal timer driver module is removed."
//  131 #endif
//  132 
//  133   /* ADC */
//  134 #if (defined HAL_ADC) && (HAL_ADC == TRUE)
//  135  HalAdcInit();
        ; Setup parameters for call to function HalAdcInit
        LCALL   ??HalAdcInit?relay
//  136 #endif
//  137 
//  138   /* DMA */
//  139 #if (defined HAL_DMA) && (HAL_DMA == TRUE)
//  140   // Must be called before the init call to any module that uses DMA.
//  141   HalDmaInit();
        ; Setup parameters for call to function HalDmaInit
        LCALL   ??HalDmaInit?relay
//  142 #endif
//  143 
//  144   /* AES */
//  145 #if (defined HAL_AES) && (HAL_AES == TRUE)
//  146     HalAesInit();
        ; Setup parameters for call to function HalAesInit
        LCALL   ??HalAesInit?relay
//  147 #endif
//  148 
//  149   /* LCD */
//  150 #if (defined HAL_LCD) && (HAL_LCD == TRUE)
//  151   HalLcdInit();
        ; Setup parameters for call to function HalLcdInit
        LCALL   ??HalLcdInit?relay
//  152 #endif
//  153 
//  154   /* UART */
//  155 #if (defined HAL_UART) && (HAL_UART == TRUE)
//  156     HalUARTInit();
//  157 #endif
//  158 
//  159   /* KEY */
//  160 #if (defined HAL_KEY) && (HAL_KEY == TRUE)
//  161     HalKeyInit();
        ; Setup parameters for call to function HalKeyInit
        LCALL   ??HalKeyInit?relay
//  162 #endif
//  163 
//  164   /* HID */
//  165 #if (defined HAL_HID) && (HAL_HID == TRUE)
//  166   usbHidInit();
//  167 #endif
//  168 }
        SJMP    ?Subroutine0
        CFI EndBlock cfiBlock2
//  169 
//  170 
//  171 /**************************************************************************************************
//  172  * @fn      Hal_ProcessEvent
//  173  *
//  174  * @brief   Hal Process Event
//  175  *
//  176  * @param   task_id - Hal TaskId
//  177  *          events - events
//  178  *
//  179  * @return  None
//  180  **************************************************************************************************/

        RSEG BANKED_CODE:CODE:NOROOT(0)
//  181 uint16 Hal_ProcessEvent( uint8 task_id, uint16 events )
Hal_ProcessEvent:
        CFI Block cfiBlock3 Using cfiCommon0
        CFI Function Hal_ProcessEvent
        CODE
//  182 {
        FUNCALL Hal_ProcessEvent, osal_msg_receive
        LOCFRAME ISTACK, 0, STACK
        LOCFRAME PSTACK, 0, STACK
        LOCFRAME XSTACK, 10, STACK
        LOCFRAME IOVERLAY, 0, STATIC
        LOCFRAME DOVERLAY, 0, STATIC
        ARGFRAME ISTACK, 0, STACK
        ARGFRAME PSTACK, 0, STACK
        ARGFRAME XSTACK, 10, STACK
        ARGFRAME IOVERLAY, 0, STATIC
        ARGFRAME DOVERLAY, 0, STATIC
        FUNCALL Hal_ProcessEvent, osal_msg_deallocate
        LOCFRAME ISTACK, 0, STACK
        LOCFRAME PSTACK, 0, STACK
        LOCFRAME XSTACK, 10, STACK
        LOCFRAME IOVERLAY, 0, STATIC
        LOCFRAME DOVERLAY, 0, STATIC
        ARGFRAME ISTACK, 0, STACK
        ARGFRAME PSTACK, 0, STACK
        ARGFRAME XSTACK, 10, STACK
        ARGFRAME IOVERLAY, 0, STATIC
        ARGFRAME DOVERLAY, 0, STATIC
        FUNCALL Hal_ProcessEvent, osal_msg_receive
        LOCFRAME ISTACK, 0, STACK
        LOCFRAME PSTACK, 0, STACK
        LOCFRAME XSTACK, 10, STACK
        LOCFRAME IOVERLAY, 0, STATIC
        LOCFRAME DOVERLAY, 0, STATIC
        ARGFRAME ISTACK, 0, STACK
        ARGFRAME PSTACK, 0, STACK
        ARGFRAME XSTACK, 10, STACK
        ARGFRAME IOVERLAY, 0, STATIC
        ARGFRAME DOVERLAY, 0, STATIC
        FUNCALL Hal_ProcessEvent, HalKeyPoll
        LOCFRAME ISTACK, 0, STACK
        LOCFRAME PSTACK, 0, STACK
        LOCFRAME XSTACK, 10, STACK
        LOCFRAME IOVERLAY, 0, STATIC
        LOCFRAME DOVERLAY, 0, STATIC
        ARGFRAME ISTACK, 0, STACK
        ARGFRAME PSTACK, 0, STACK
        ARGFRAME XSTACK, 10, STACK
        ARGFRAME IOVERLAY, 0, STATIC
        ARGFRAME DOVERLAY, 0, STATIC
        FUNCALL Hal_ProcessEvent, osal_start_timerEx
        LOCFRAME ISTACK, 0, STACK
        LOCFRAME PSTACK, 0, STACK
        LOCFRAME XSTACK, 10, STACK
        LOCFRAME IOVERLAY, 0, STATIC
        LOCFRAME DOVERLAY, 0, STATIC
        ARGFRAME ISTACK, 0, STACK
        ARGFRAME PSTACK, 0, STACK
        ARGFRAME XSTACK, 10, STACK
        ARGFRAME IOVERLAY, 0, STATIC
        ARGFRAME DOVERLAY, 0, STATIC
        MOV     A,#-0xa
        LCALL   ?BANKED_ENTER_XDATA
        CFI DPH0 load(1, XDATA, add(CFA_XSP16, literal(-1)))
        CFI DPL0 load(1, XDATA, add(CFA_XSP16, literal(-2)))
        CFI ?BRET_EXT load(1, XDATA, add(CFA_XSP16, literal(-3)))
        CFI ?RET_HIGH load(1, XDATA, add(CFA_XSP16, literal(-4)))
        CFI ?RET_LOW load(1, XDATA, add(CFA_XSP16, literal(-5)))
        CFI R7 load(1, XDATA, add(CFA_XSP16, literal(-6)))
        CFI V1 load(1, XDATA, add(CFA_XSP16, literal(-7)))
        CFI V0 load(1, XDATA, add(CFA_XSP16, literal(-8)))
        CFI VB load(1, XDATA, add(CFA_XSP16, literal(-9)))
        CFI R6 load(1, XDATA, add(CFA_XSP16, literal(-10)))
        CFI CFA_SP SP+0
        CFI CFA_XSP16 add(XSP16, 10)
        ; Saved register size: 10
        ; Auto size: 0
        MOV     A,R2
        MOV     R6,A
        MOV     A,R3
        MOV     R7,A
//  183   uint8 *msgPtr;
//  184   
//  185   (void)task_id;  // Intentionally unreferenced parameter
//  186 
//  187   if ( events & SYS_EVENT_MSG )
        ANL     A,#0x80
        JZ      ??Hal_ProcessEvent_0
//  188   {
//  189     msgPtr = osal_msg_receive(Hal_TaskID);
        ; Setup parameters for call to function osal_msg_receive
        SJMP    ??Hal_ProcessEvent_1
//  190 
//  191     while (msgPtr)
//  192     {
//  193       /* Do something here - for now, just deallocate the msg and move on */
//  194 
//  195       /* De-allocate */
//  196       osal_msg_deallocate( msgPtr );
??Hal_ProcessEvent_2:
        ; Setup parameters for call to function osal_msg_deallocate
        LCALL   ??osal_msg_deallocate?relay
//  197       /* Next */
//  198       msgPtr = osal_msg_receive( Hal_TaskID );
        ; Setup parameters for call to function osal_msg_receive
??Hal_ProcessEvent_1:
        MOV     DPTR,#Hal_TaskID
        MOVX    A,@DPTR
        MOV     R1,A
        LCALL   ??osal_msg_receive?relay
//  199     }
        MOV     A,R2
        ORL     A,R3
        JNZ     ??Hal_ProcessEvent_2
//  200     return events ^ SYS_EVENT_MSG;
        MOV     A,R6
        MOV     R2,A
        MOV     A,R7
        XRL     A,#0x80
??Hal_ProcessEvent_3:
        MOV     R3,A
        SJMP    ??Hal_ProcessEvent_4
//  201   }
//  202 
//  203   if ( events & HAL_LED_BLINK_EVENT )
??Hal_ProcessEvent_0:
        MOV     A,R6
        ANL     A,#0x2
        JZ      ??Hal_ProcessEvent_5
//  204   {
//  205 #if (defined (BLINK_LEDS)) && (HAL_LED == TRUE)
//  206     HalLedUpdate();
//  207 #endif /* BLINK_LEDS && HAL_LED */
//  208     return events ^ HAL_LED_BLINK_EVENT;
        MOV     A,R6
        XRL     A,#0x2
        MOV     R2,A
        SJMP    ??Hal_ProcessEvent_4
//  209   }
//  210 
//  211   if (events & HAL_KEY_EVENT)
??Hal_ProcessEvent_5:
        MOV     A,R6
        MOV     C,0xE0 /* A   */.0
        JNC     ??Hal_ProcessEvent_6
//  212   {
//  213 
//  214 #if (defined HAL_KEY) && (HAL_KEY == TRUE)
//  215     /* Check for keys */
//  216     HalKeyPoll();
        ; Setup parameters for call to function HalKeyPoll
        LCALL   ??HalKeyPoll?relay
//  217 
//  218     /* if interrupt disabled, do next polling */
//  219     if (!Hal_KeyIntEnable)
        MOV     DPTR,#Hal_KeyIntEnable
        MOVX    A,@DPTR
        JNZ     ??Hal_ProcessEvent_7
//  220     {
//  221       osal_start_timerEx( Hal_TaskID, HAL_KEY_EVENT, 100);
        ; Setup parameters for call to function osal_start_timerEx
        MOV     R4,#0x64
        MOV     R5,#0x0
        MOV     R2,#0x1
        MOV     R3,#0x0
        MOV     DPTR,#Hal_TaskID
        MOVX    A,@DPTR
        MOV     R1,A
        LCALL   ??osal_start_timerEx?relay
//  222     }
//  223 #endif // HAL_KEY
//  224 
//  225     return events ^ HAL_KEY_EVENT;
??Hal_ProcessEvent_7:
        MOV     A,R6
        XRL     A,#0x1
        MOV     R2,A
        MOV     A,R7
        SJMP    ??Hal_ProcessEvent_3
//  226   }
//  227 
//  228 #ifdef POWER_SAVING
//  229   if ( events & HAL_SLEEP_TIMER_EVENT )
//  230   {
//  231     halRestoreSleepLevel();
//  232     return events ^ HAL_SLEEP_TIMER_EVENT;
//  233   }
//  234 #endif
//  235 
//  236 #ifdef CC2591_COMPRESSION_WORKAROUND
//  237   if ( events & PERIOD_RSSI_RESET_EVT )
//  238   {
//  239     macRxResetRssi();
//  240     return (events ^ PERIOD_RSSI_RESET_EVT);
//  241   }
//  242 #endif  
//  243   
//  244   /* Nothing interested, discard the message */
//  245   return 0;
??Hal_ProcessEvent_6:
        MOV     R2,#0x0
        MOV     R3,#0x0
??Hal_ProcessEvent_4:
        MOV     R7,#0x2
        LJMP    ?BANKED_LEAVE_XDATA
        CFI EndBlock cfiBlock3
//  246 
//  247 }
//  248 
//  249 /**************************************************************************************************
//  250  * @fn      Hal_ProcessPoll
//  251  *
//  252  * @brief   This routine will be called by OSAL to poll UART, TIMER...
//  253  *
//  254  * @param   task_id - Hal TaskId
//  255  *
//  256  * @return  None
//  257  **************************************************************************************************/

        RSEG BANKED_CODE:CODE:NOROOT(0)
//  258 void Hal_ProcessPoll ()
Hal_ProcessPoll:
        CFI Block cfiBlock4 Using cfiCommon0
        CFI Function Hal_ProcessPoll
        CODE
//  259 {
        ; Saved register size: 0
        ; Auto size: 0
//  260 
//  261   /* Timer Poll */
//  262 #if (defined HAL_TIMER) && (HAL_TIMER == TRUE)
//  263   #error "The hal timer driver module is removed."
//  264 #endif
//  265 
//  266   /* UART Poll */
//  267 #if (defined HAL_UART) && (HAL_UART == TRUE)
//  268   HalUARTPoll();
//  269 #endif  
//  270 
//  271   /* SPI Poll */
//  272 #if (defined HAL_SPI) && (HAL_SPI == TRUE)
//  273   HalSpiPoll();
//  274 #endif
//  275 
//  276   /* HID poll */
//  277 #if (defined HAL_HID) && (HAL_HID == TRUE)
//  278   usbHidProcessEvents();
//  279 #endif
//  280   
//  281 #if defined( POWER_SAVING )
//  282   /* Allow sleep before the next OSAL event loop */
//  283   ALLOW_SLEEP_MODE();
//  284 #endif
//  285 
//  286 }
        LJMP    ?BRET
        CFI EndBlock cfiBlock4

        RSEG BANK_RELAYS:CODE:REORDER:NOROOT(0)
??Hal_Init?relay:
        LCALL   ?BDISPATCH
        DATA
        DC24    Hal_Init

        RSEG BANK_RELAYS:CODE:REORDER:NOROOT(0)
??HalDriverInit?relay:
        LCALL   ?BDISPATCH
        DATA
        DC24    HalDriverInit

        RSEG BANK_RELAYS:CODE:REORDER:NOROOT(0)
??Hal_ProcessEvent?relay:
        LCALL   ?BDISPATCH
        DATA
        DC24    Hal_ProcessEvent

        RSEG BANK_RELAYS:CODE:REORDER:NOROOT(0)
??Hal_ProcessPoll?relay:
        LCALL   ?BDISPATCH
        DATA
        DC24    Hal_ProcessPoll

        END
//  287 
//  288 
//  289 /**************************************************************************************************
//  290 **************************************************************************************************/
//  291 
// 
// 135 bytes in segment BANKED_CODE
//  24 bytes in segment BANK_RELAYS
//   1 byte  in segment XDATA_Z
// 
// 159 bytes of CODE  memory
//   1 byte  of XDATA memory
//
//Errors: none
//Warnings: none
