###############################################################################
#                                                                             #
# IAR C/C++ Compiler V8.10.1.10194/W32 for 8051         23/Apr/2015  09:38:12 #
# Copyright 2004-2011 IAR Systems AB.                                         #
#                                                                             #
#    Core               =  plain                                              #
#    Code model         =  banked                                             #
#    Data model         =  large                                              #
#    Calling convention =  xdata reentrant                                    #
#    Constant location  =  data_rom                                           #
#    Dptr setup         =  1,16                                               #
#    Source file        =  C:\Users\William\Desktop\±œ“µ…Ëº∆\SRC\EndDevice-Pr #
#                          oject-for-editing\Projects\zstack\MyEnddevice\EndD #
#                          evice\Source\TemperatureControl.c                  #
#    Command line       =  -f C:\Users\William\Desktop\±œ“µ…Ëº∆\SRC\EndDevice #
#                          -Project-for-editing\Projects\zstack\MyEnddevice\E #
#                          ndDevice\CC2530DB\..\..\..\Tools\CC2530DB\f8wEndev #
#                          .cfg (-DCPU32MHZ -DROOT=__near_func                #
#                          -DMAC_CFG_TX_DATA_MAX=3 -DMAC_CFG_TX_MAX=6         #
#                          -DMAC_CFG_RX_MAX=3) -f C:\Users\William\Desktop\±œ #
#                          “µ…Ëº∆\SRC\EndDevice-Project-for-editing\Projects\ #
#                          zstack\MyEnddevice\EndDevice\CC2530DB\..\..\..\Too #
#                          ls\CC2530DB\f8wConfig.cfg (-DZIGBEEPRO -DSECURE=0  #
#                          -DZG_SECURE_DYNAMIC=0 -DREFLECTOR                  #
#                          -DDEFAULT_CHANLIST=0x02000000                      #
#                          -DZDAPP_CONFIG_PAN_ID=0xFFFF                       #
#                          -DNWK_START_DELAY=100 -DEXTENDED_JOINING_RANDOM_MA #
#                          SK=0x007F -DBEACON_REQUEST_DELAY=100               #
#                          -DBEACON_REQ_DELAY_MASK=0x00FF                     #
#                          -DLINK_STATUS_JITTER_MASK=0x007F                   #
#                          -DROUTE_EXPIRY_TIME=30 -DAPSC_ACK_WAIT_DURATION_PO #
#                          LLED=3000 -DNWK_INDIRECT_MSG_TIMEOUT=7             #
#                          -DMAX_RREQ_ENTRIES=8 -DAPSC_MAX_FRAME_RETRIES=3    #
#                          -DNWK_MAX_DATA_RETRIES=2                           #
#                          -DMAX_POLL_FAILURE_RETRIES=2 -DMAX_BCAST=9         #
#                          -DAPS_MAX_GROUPS=16 -DMAX_RTG_ENTRIES=40           #
#                          -DNWK_MAX_BINDING_ENTRIES=4                        #
#                          -DMAX_BINDING_CLUSTER_IDS=4 "-DDEFAULT_KEY={0x01,  #
#                          0x03, 0x05, 0x07, 0x09, 0x0B, 0x0D, 0x0F, 0x00,    #
#                          0x02, 0x04, 0x06, 0x08, 0x0A, 0x0C, 0x0D}"         #
#                          -DMAC_MAX_FRAME_SIZE=116                           #
#                          -DZDNWKMGR_MIN_TRANSMISSIONS=20 "-DCONST=const     #
#                          __code" -DGENERIC=__generic                        #
#                          -DRFD_RCVC_ALWAYS_ON=FALSE -DPOLL_RATE=1000        #
#                          -DQUEUED_POLL_RATE=100 -DRESPONSE_POLL_RATE=100)   #
#                          -DREJOIN_POLL_RATE=440 C:\Users\William\Desktop\±œ #
#                          “µ…Ëº∆\SRC\EndDevice-Project-for-editing\Projects\ #
#                          zstack\MyEnddevice\EndDevice\Source\TemperatureCon #
#                          trol.c -D NWK_AUTO_POLL -D NV_RESTORE=1 -D         #
#                          xZTOOL_P1 -D xMT_TASK -D xMT_SYS_FUNC -D           #
#                          xMT_ZDO_FUNC -D xLCD_SUPPORTED=DEBUG -lC           #
#                          C:\Users\William\Desktop\±œ“µ…Ëº∆\SRC\EndDevice-Pr #
#                          oject-for-editing\Projects\zstack\MyEnddevice\EndD #
#                          evice\CC2530DB\EndDeviceEB\List\ -lA               #
#                          C:\Users\William\Desktop\±œ“µ…Ëº∆\SRC\EndDevice-Pr #
#                          oject-for-editing\Projects\zstack\MyEnddevice\EndD #
#                          evice\CC2530DB\EndDeviceEB\List\ --diag_suppress   #
#                          Pe001,Pa010 -o C:\Users\William\Desktop\±œ“µ…Ëº∆\S #
#                          RC\EndDevice-Project-for-editing\Projects\zstack\M #
#                          yEnddevice\EndDevice\CC2530DB\EndDeviceEB\Obj\ -e  #
#                          --no_code_motion --debug --core=plain --dptr=16,1  #
#                          --data_model=large --code_model=banked             #
#                          --calling_convention=xdata_reentrant               #
#                          --place_constants=data_rom --nr_virtual_regs 16    #
#                          -I C:\Users\William\Desktop\±œ“µ…Ëº∆\SRC\EndDevice #
#                          -Project-for-editing\Projects\zstack\MyEnddevice\E #
#                          ndDevice\CC2530DB\ -I C:\Users\William\Desktop\±œ“ #
#                          µ…Ëº∆\SRC\EndDevice-Project-for-editing\Projects\z #
#                          stack\MyEnddevice\EndDevice\CC2530DB\..\Source\    #
#                          -I C:\Users\William\Desktop\±œ“µ…Ëº∆\SRC\EndDevice #
#                          -Project-for-editing\Projects\zstack\MyEnddevice\E #
#                          ndDevice\CC2530DB\..\..\..\ZMain\TI2530DB\ -I      #
#                          C:\Users\William\Desktop\±œ“µ…Ëº∆\SRC\EndDevice-Pr #
#                          oject-for-editing\Projects\zstack\MyEnddevice\EndD #
#                          evice\CC2530DB\..\..\..\..\..\Components\hal\inclu #
#                          de\ -I C:\Users\William\Desktop\±œ“µ…Ëº∆\SRC\EndDe #
#                          vice-Project-for-editing\Projects\zstack\MyEnddevi #
#                          ce\EndDevice\CC2530DB\..\..\..\..\..\Components\ha #
#                          l\target\CC2530EB\ -I C:\Users\William\Desktop\±œ“ #
#                          µ…Ëº∆\SRC\EndDevice-Project-for-editing\Projects\z #
#                          stack\MyEnddevice\EndDevice\CC2530DB\..\..\..\..\. #
#                          .\Components\mac\include\ -I                       #
#                          C:\Users\William\Desktop\±œ“µ…Ëº∆\SRC\EndDevice-Pr #
#                          oject-for-editing\Projects\zstack\MyEnddevice\EndD #
#                          evice\CC2530DB\..\..\..\..\..\Components\mac\high_ #
#                          level\ -I C:\Users\William\Desktop\±œ“µ…Ëº∆\SRC\En #
#                          dDevice-Project-for-editing\Projects\zstack\MyEndd #
#                          evice\EndDevice\CC2530DB\..\..\..\..\..\Components #
#                          \mac\low_level\srf04\ -I                           #
#                          C:\Users\William\Desktop\±œ“µ…Ëº∆\SRC\EndDevice-Pr #
#                          oject-for-editing\Projects\zstack\MyEnddevice\EndD #
#                          evice\CC2530DB\..\..\..\..\..\Components\mac\low_l #
#                          evel\srf04\single_chip\ -I                         #
#                          C:\Users\William\Desktop\±œ“µ…Ëº∆\SRC\EndDevice-Pr #
#                          oject-for-editing\Projects\zstack\MyEnddevice\EndD #
#                          evice\CC2530DB\..\..\..\..\..\Components\mt\ -I    #
#                          C:\Users\William\Desktop\±œ“µ…Ëº∆\SRC\EndDevice-Pr #
#                          oject-for-editing\Projects\zstack\MyEnddevice\EndD #
#                          evice\CC2530DB\..\..\..\..\..\Components\osal\incl #
#                          ude\ -I C:\Users\William\Desktop\±œ“µ…Ëº∆\SRC\EndD #
#                          evice-Project-for-editing\Projects\zstack\MyEnddev #
#                          ice\EndDevice\CC2530DB\..\..\..\..\..\Components\s #
#                          ervices\saddr\ -I C:\Users\William\Desktop\±œ“µ…Ëº #
#                          ∆\SRC\EndDevice-Project-for-editing\Projects\zstac #
#                          k\MyEnddevice\EndDevice\CC2530DB\..\..\..\..\..\Co #
#                          mponents\services\sdata\ -I                        #
#                          C:\Users\William\Desktop\±œ“µ…Ëº∆\SRC\EndDevice-Pr #
#                          oject-for-editing\Projects\zstack\MyEnddevice\EndD #
#                          evice\CC2530DB\..\..\..\..\..\Components\stack\af\ #
#                           -I C:\Users\William\Desktop\±œ“µ…Ëº∆\SRC\EndDevic #
#                          e-Project-for-editing\Projects\zstack\MyEnddevice\ #
#                          EndDevice\CC2530DB\..\..\..\..\..\Components\stack #
#                          \nwk\ -I C:\Users\William\Desktop\±œ“µ…Ëº∆\SRC\End #
#                          Device-Project-for-editing\Projects\zstack\MyEndde #
#                          vice\EndDevice\CC2530DB\..\..\..\..\..\Components\ #
#                          stack\sapi\ -I C:\Users\William\Desktop\±œ“µ…Ëº∆\S #
#                          RC\EndDevice-Project-for-editing\Projects\zstack\M #
#                          yEnddevice\EndDevice\CC2530DB\..\..\..\..\..\Compo #
#                          nents\stack\sec\ -I C:\Users\William\Desktop\±œ“µ… #
#                          Ëº∆\SRC\EndDevice-Project-for-editing\Projects\zst #
#                          ack\MyEnddevice\EndDevice\CC2530DB\..\..\..\..\..\ #
#                          Components\stack\sys\ -I                           #
#                          C:\Users\William\Desktop\±œ“µ…Ëº∆\SRC\EndDevice-Pr #
#                          oject-for-editing\Projects\zstack\MyEnddevice\EndD #
#                          evice\CC2530DB\..\..\..\..\..\Components\stack\zdo #
#                          \ -I C:\Users\William\Desktop\±œ“µ…Ëº∆\SRC\EndDevi #
#                          ce-Project-for-editing\Projects\zstack\MyEnddevice #
#                          \EndDevice\CC2530DB\..\..\..\..\..\Components\zmac #
#                          \ -I C:\Users\William\Desktop\±œ“µ…Ëº∆\SRC\EndDevi #
#                          ce-Project-for-editing\Projects\zstack\MyEnddevice #
#                          \EndDevice\CC2530DB\..\..\..\..\..\Components\zmac #
#                          \f8w\ -Ohz                                         #
#    List file          =  C:\Users\William\Desktop\±œ“µ…Ëº∆\SRC\EndDevice-Pr #
#                          oject-for-editing\Projects\zstack\MyEnddevice\EndD #
#                          evice\CC2530DB\EndDeviceEB\List\TemperatureControl #
#                          .lst                                               #
#    Object file        =  C:\Users\William\Desktop\±œ“µ…Ëº∆\SRC\EndDevice-Pr #
#                          oject-for-editing\Projects\zstack\MyEnddevice\EndD #
#                          evice\CC2530DB\EndDeviceEB\Obj\TemperatureControl. #
#                          r51                                                #
#                                                                             #
#                                                                             #
###############################################################################

C:\Users\William\Desktop\±œ“µ…Ëº∆\SRC\EndDevice-Project-for-editing\Projects\zstack\MyEnddevice\EndDevice\Source\TemperatureControl.c
      1          
      2          #include"EnddeviceVariable.h"
      3          #include "TemperatureControl.h"
      4          
      5          
      6          

   \                                 In  segment BANKED_CODE, align 1, keep-with-next
      7          uint8 ControlTemperature(uint16 RoomSetValue,uint16 FloorSetValue,
   \                     ControlTemperature:
      8                                            uint16 RoomSampleValue,uint16 FloorSampleValue)
      9          {
   \   000000   74F6         MOV     A,#-0xa
   \   000002   12....       LCALL   ?BANKED_ENTER_XDATA
   \   000005                ; Saved register size: 10
   \   000005                ; Auto size: 0
   \   000005   740A         MOV     A,#0xa
   \   000007   12....       LCALL   ?XSTACK_DISP0_8
   \   00000A   E0           MOVX    A,@DPTR
   \   00000B   FE           MOV     R6,A
   \   00000C   A3           INC     DPTR
   \   00000D   E0           MOVX    A,@DPTR
   \   00000E   FF           MOV     R7,A
   \   00000F   740C         MOV     A,#0xc
   \   000011   12....       LCALL   ?XSTACK_DISP0_8
   \   000014   E0           MOVX    A,@DPTR
   \   000015   F5..         MOV     ?V0 + 0,A
   \   000017   A3           INC     DPTR
   \   000018   E0           MOVX    A,@DPTR
   \   000019   F5..         MOV     ?V0 + 1,A
     10            uint8 control = 0;
   \   00001B   7900         MOV     R1,#0x0
     11            bool over_heat = FALSE;
     12            int16 Error = FloorSetValue * 10 -  FloorSampleValue;
     13            
     14            if(Error < -SATURATION)
   \   00001D   EC           MOV     A,R4
   \   00001E   75F00A       MOV     B,#0xa
   \   000021   A4           MUL     AB
   \   000022   FC           MOV     R4,A
   \   000023   A8F0         MOV     R0,B
   \   000025   75F00A       MOV     B,#0xa
   \   000028   ED           MOV     A,R5
   \   000029   A4           MUL     AB
   \   00002A   28           ADD     A,R0
   \   00002B   FD           MOV     R5,A
   \   00002C   EC           MOV     A,R4
   \   00002D   C3           CLR     C
   \   00002E   95..         SUBB    A,?V0 + 0
   \   000030   FC           MOV     R4,A
   \   000031   ED           MOV     A,R5
   \   000032   95..         SUBB    A,?V0 + 1
   \   000034   FD           MOV     R5,A
   \   000035   C3           CLR     C
   \   000036   EC           MOV     A,R4
   \   000037   94E2         SUBB    A,#-0x1e
   \   000039   ED           MOV     A,R5
   \   00003A   94FF         SUBB    A,#-0x1
   \   00003C   A2D2         MOV     C,0xD0 /* PSW */.2
   \   00003E   65D0         XRL     A,PSW
   \   000040   33           RLC     A
   \   000041   5004         JNC     ??ControlTemperature_0
     15            {
     16              over_heat = TRUE; 
   \   000043   7801         MOV     R0,#0x1
   \   000045   8002         SJMP    ??ControlTemperature_1
     17            }
     18            else
     19            {
     20              over_heat = FALSE; 
   \                     ??ControlTemperature_0:
   \   000047   7800         MOV     R0,#0x0
     21            }
     22            
     23            if((POWER) && (!over_heat) && (!Error_Code)) // control the relay only when power on,not overheat
   \                     ??ControlTemperature_1:
   \   000049   90....       MOV     DPTR,#POWER
   \   00004C   E0           MOVX    A,@DPTR
   \   00004D   603C         JZ      ??ControlTemperature_2
   \   00004F   E8           MOV     A,R0
   \   000050   A2E0         MOV     C,0xE0 /* A   */.0
   \   000052   4037         JC      ??ControlTemperature_2
   \   000054   90....       MOV     DPTR,#Error_Code
   \   000057   E0           MOVX    A,@DPTR
   \   000058   FC           MOV     R4,A
   \   000059   A3           INC     DPTR
   \   00005A   E0           MOVX    A,@DPTR
   \   00005B   FD           MOV     R5,A
   \   00005C   EC           MOV     A,R4
   \   00005D   4D           ORL     A,R5
   \   00005E   702B         JNZ     ??ControlTemperature_2
     24                                                         // and no error exist
     25            {
     26              Error = RoomSetValue * 10 - RoomSampleValue;
   \   000060   EA           MOV     A,R2
   \   000061   75F00A       MOV     B,#0xa
   \   000064   A4           MUL     AB
   \   000065   FA           MOV     R2,A
   \   000066   A8F0         MOV     R0,B
   \   000068   75F00A       MOV     B,#0xa
   \   00006B   EB           MOV     A,R3
   \   00006C   A4           MUL     AB
   \   00006D   28           ADD     A,R0
   \   00006E   FB           MOV     R3,A
   \   00006F   EA           MOV     A,R2
   \   000070   C3           CLR     C
   \   000071   9E           SUBB    A,R6
   \   000072   FA           MOV     R2,A
   \   000073   EB           MOV     A,R3
   \   000074   9F           SUBB    A,R7
   \   000075   FB           MOV     R3,A
     27              if(TOKEN)// here is the token  now
   \   000076   90....       MOV     DPTR,#TOKEN
   \   000079   E0           MOVX    A,@DPTR
   \   00007A   600F         JZ      ??ControlTemperature_2
     28              {
     29                if(Error < -SATURATION)
     30                {
     31                    control = 0;      
     32                }
     33                if(Error > SATURATION)
   \   00007C   C3           CLR     C
   \   00007D   EA           MOV     A,R2
   \   00007E   941F         SUBB    A,#0x1f
   \   000080   EB           MOV     A,R3
   \   000081   9400         SUBB    A,#0x0
   \   000083   A2D2         MOV     C,0xD0 /* PSW */.2
   \   000085   65D0         XRL     A,PSW
   \   000087   33           RLC     A
   \   000088   4001         JC      ??ControlTemperature_2
     34                {
     35                    control = 1;  
   \   00008A   09           INC     R1
     36                }
     37              }
     38              else// the token is took off
     39              {
     40                 control = 0;
     41              } 
     42            }
     43            else// not power,overheated or an error occur
     44            {
     45                control = 0;
     46            } 
     47            
     48           return control;
   \                     ??ControlTemperature_2:
   \   00008B   7F02         MOV     R7,#0x2
   \   00008D   02....       LJMP    ?BANKED_LEAVE_XDATA
     49          }

   \                                 In  segment BANK_RELAYS, align 1
   \                     ??ControlTemperature?relay:
   \   000000   12....       LCALL   ?BDISPATCH
   \   000003   ......       DC24    ControlTemperature

   Maximum stack usage in bytes:

     Function           ISTACK PSTACK XSTACK
     --------           ------ ------ ------
     ControlTemperature     0      0     14


   Segment part sizes:

     Function/Label             Bytes
     --------------             -----
     ControlTemperature          144
     ??ControlTemperature?relay    6

 
 144 bytes in segment BANKED_CODE
   6 bytes in segment BANK_RELAYS
 
 150 bytes of CODE memory

Errors: none
Warnings: none
