///////////////////////////////////////////////////////////////////////////////
//                                                                            /
// IAR C/C++ Compiler V8.10.1.10194/W32 for 8051        20/Apr/2015  19:51:20 /
// Copyright 2004-2011 IAR Systems AB.                                        /
//                                                                            /
//    Core               =  plain                                             /
//    Code model         =  banked                                            /
//    Data model         =  large                                             /
//    Calling convention =  xdata reentrant                                   /
//    Constant location  =  data_rom                                          /
//    Dptr setup         =  1,16                                              /
//    Source file        =  C:\Users\William\Desktop\±œ“µ…Ëº∆\SRC\EndDevice   /
//                          Project for editing\Projects\zstack\MyEnddevice\E /
//                          ndDevice\Source\TemperatureControl.c              /
//    Command line       =  -f "C:\Users\William\Desktop\±œ“µ…Ëº∆\SRC\EndDevi /
//                          ce Project for editing\Projects\zstack\MyEnddevic /
//                          e\EndDevice\CC2530DB\..\..\..\Tools\CC2530DB\f8wE /
//                          ndev.cfg" (-DCPU32MHZ -DROOT=__near_func          /
//                          -DMAC_CFG_TX_DATA_MAX=3 -DMAC_CFG_TX_MAX=6        /
//                          -DMAC_CFG_RX_MAX=3) -f "C:\Users\William\Desktop\ /
//                          ±œ“µ…Ëº∆\SRC\EndDevice Project for                /
//                          editing\Projects\zstack\MyEnddevice\EndDevice\CC2 /
//                          530DB\..\..\..\Tools\CC2530DB\f8wConfig.cfg"      /
//                          (-DZIGBEEPRO -DSECURE=0 -DZG_SECURE_DYNAMIC=0     /
//                          -DREFLECTOR -DDEFAULT_CHANLIST=0x02000000         /
//                          -DZDAPP_CONFIG_PAN_ID=0xFFFF                      /
//                          -DNWK_START_DELAY=100 -DEXTENDED_JOINING_RANDOM_M /
//                          ASK=0x007F -DBEACON_REQUEST_DELAY=100             /
//                          -DBEACON_REQ_DELAY_MASK=0x00FF                    /
//                          -DLINK_STATUS_JITTER_MASK=0x007F                  /
//                          -DROUTE_EXPIRY_TIME=30 -DAPSC_ACK_WAIT_DURATION_P /
//                          OLLED=3000 -DNWK_INDIRECT_MSG_TIMEOUT=7           /
//                          -DMAX_RREQ_ENTRIES=8 -DAPSC_MAX_FRAME_RETRIES=3   /
//                          -DNWK_MAX_DATA_RETRIES=2                          /
//                          -DMAX_POLL_FAILURE_RETRIES=2 -DMAX_BCAST=9        /
//                          -DAPS_MAX_GROUPS=16 -DMAX_RTG_ENTRIES=40          /
//                          -DNWK_MAX_BINDING_ENTRIES=4                       /
//                          -DMAX_BINDING_CLUSTER_IDS=4                       /
//                          "-DDEFAULT_KEY={0x01, 0x03, 0x05, 0x07, 0x09,     /
//                          0x0B, 0x0D, 0x0F, 0x00, 0x02, 0x04, 0x06, 0x08,   /
//                          0x0A, 0x0C, 0x0D}" -DMAC_MAX_FRAME_SIZE=116       /
//                          -DZDNWKMGR_MIN_TRANSMISSIONS=20 "-DCONST=const    /
//                          __code" -DGENERIC=__generic                       /
//                          -DRFD_RCVC_ALWAYS_ON=FALSE -DPOLL_RATE=1000       /
//                          -DQUEUED_POLL_RATE=100 -DRESPONSE_POLL_RATE=100)  /
//                          -DREJOIN_POLL_RATE=440 "C:\Users\William\Desktop\ /
//                          ±œ“µ…Ëº∆\SRC\EndDevice Project for                /
//                          editing\Projects\zstack\MyEnddevice\EndDevice\Sou /
//                          rce\TemperatureControl.c" -D NWK_AUTO_POLL -D     /
//                          NV_RESTORE=1 -D xZTOOL_P1 -D xMT_TASK -D          /
//                          xMT_SYS_FUNC -D xMT_ZDO_FUNC -D                   /
//                          xLCD_SUPPORTED=DEBUG -lC                          /
//                          "C:\Users\William\Desktop\±œ“µ…Ëº∆\SRC\EndDevice  /
//                          Project for editing\Projects\zstack\MyEnddevice\E /
//                          ndDevice\CC2530DB\EndDeviceEB\List\" -lA          /
//                          "C:\Users\William\Desktop\±œ“µ…Ëº∆\SRC\EndDevice  /
//                          Project for editing\Projects\zstack\MyEnddevice\E /
//                          ndDevice\CC2530DB\EndDeviceEB\List\"              /
//                          --diag_suppress Pe001,Pa010 -o                    /
//                          "C:\Users\William\Desktop\±œ“µ…Ëº∆\SRC\EndDevice  /
//                          Project for editing\Projects\zstack\MyEnddevice\E /
//                          ndDevice\CC2530DB\EndDeviceEB\Obj\" -e            /
//                          --no_code_motion --debug --core=plain             /
//                          --dptr=16,1 --data_model=large                    /
//                          --code_model=banked --calling_convention=xdata_re /
//                          entrant --place_constants=data_rom                /
//                          --nr_virtual_regs 16 -I                           /
//                          "C:\Users\William\Desktop\±œ“µ…Ëº∆\SRC\EndDevice  /
//                          Project for editing\Projects\zstack\MyEnddevice\E /
//                          ndDevice\CC2530DB\" -I "C:\Users\William\Desktop\ /
//                          ±œ“µ…Ëº∆\SRC\EndDevice Project for                /
//                          editing\Projects\zstack\MyEnddevice\EndDevice\CC2 /
//                          530DB\..\Source\" -I "C:\Users\William\Desktop\±œ /
//                          “µ…Ëº∆\SRC\EndDevice Project for                  /
//                          editing\Projects\zstack\MyEnddevice\EndDevice\CC2 /
//                          530DB\..\..\..\ZMain\TI2530DB\" -I                /
//                          "C:\Users\William\Desktop\±œ“µ…Ëº∆\SRC\EndDevice  /
//                          Project for editing\Projects\zstack\MyEnddevice\E /
//                          ndDevice\CC2530DB\..\..\..\..\..\Components\hal\i /
//                          nclude\" -I "C:\Users\William\Desktop\±œ“µ…Ëº∆\SR /
//                          C\EndDevice Project for                           /
//                          editing\Projects\zstack\MyEnddevice\EndDevice\CC2 /
//                          530DB\..\..\..\..\..\Components\hal\target\CC2530 /
//                          EB\" -I "C:\Users\William\Desktop\±œ“µ…Ëº∆\SRC\En /
//                          dDevice Project for editing\Projects\zstack\MyEnd /
//                          device\EndDevice\CC2530DB\..\..\..\..\..\Componen /
//                          ts\mac\include\" -I "C:\Users\William\Desktop\±œ“ /
//                          µ…Ëº∆\SRC\EndDevice Project for                   /
//                          editing\Projects\zstack\MyEnddevice\EndDevice\CC2 /
//                          530DB\..\..\..\..\..\Components\mac\high_level\"  /
//                          -I "C:\Users\William\Desktop\±œ“µ…Ëº∆\SRC\EndDevi /
//                          ce Project for editing\Projects\zstack\MyEnddevic /
//                          e\EndDevice\CC2530DB\..\..\..\..\..\Components\ma /
//                          c\low_level\srf04\" -I "C:\Users\William\Desktop\ /
//                          ±œ“µ…Ëº∆\SRC\EndDevice Project for                /
//                          editing\Projects\zstack\MyEnddevice\EndDevice\CC2 /
//                          530DB\..\..\..\..\..\Components\mac\low_level\srf /
//                          04\single_chip\" -I "C:\Users\William\Desktop\±œ“ /
//                          µ…Ëº∆\SRC\EndDevice Project for                   /
//                          editing\Projects\zstack\MyEnddevice\EndDevice\CC2 /
//                          530DB\..\..\..\..\..\Components\mt\" -I           /
//                          "C:\Users\William\Desktop\±œ“µ…Ëº∆\SRC\EndDevice  /
//                          Project for editing\Projects\zstack\MyEnddevice\E /
//                          ndDevice\CC2530DB\..\..\..\..\..\Components\osal\ /
//                          include\" -I "C:\Users\William\Desktop\±œ“µ…Ëº∆\S /
//                          RC\EndDevice Project for                          /
//                          editing\Projects\zstack\MyEnddevice\EndDevice\CC2 /
//                          530DB\..\..\..\..\..\Components\services\saddr\"  /
//                          -I "C:\Users\William\Desktop\±œ“µ…Ëº∆\SRC\EndDevi /
//                          ce Project for editing\Projects\zstack\MyEnddevic /
//                          e\EndDevice\CC2530DB\..\..\..\..\..\Components\se /
//                          rvices\sdata\" -I "C:\Users\William\Desktop\±œ“µ… /
//                          Ëº∆\SRC\EndDevice Project for                     /
//                          editing\Projects\zstack\MyEnddevice\EndDevice\CC2 /
//                          530DB\..\..\..\..\..\Components\stack\af\" -I     /
//                          "C:\Users\William\Desktop\±œ“µ…Ëº∆\SRC\EndDevice  /
//                          Project for editing\Projects\zstack\MyEnddevice\E /
//                          ndDevice\CC2530DB\..\..\..\..\..\Components\stack /
//                          \nwk\" -I "C:\Users\William\Desktop\±œ“µ…Ëº∆\SRC\ /
//                          EndDevice Project for editing\Projects\zstack\MyE /
//                          nddevice\EndDevice\CC2530DB\..\..\..\..\..\Compon /
//                          ents\stack\sapi\" -I "C:\Users\William\Desktop\±œ /
//                          “µ…Ëº∆\SRC\EndDevice Project for                  /
//                          editing\Projects\zstack\MyEnddevice\EndDevice\CC2 /
//                          530DB\..\..\..\..\..\Components\stack\sec\" -I    /
//                          "C:\Users\William\Desktop\±œ“µ…Ëº∆\SRC\EndDevice  /
//                          Project for editing\Projects\zstack\MyEnddevice\E /
//                          ndDevice\CC2530DB\..\..\..\..\..\Components\stack /
//                          \sys\" -I "C:\Users\William\Desktop\±œ“µ…Ëº∆\SRC\ /
//                          EndDevice Project for editing\Projects\zstack\MyE /
//                          nddevice\EndDevice\CC2530DB\..\..\..\..\..\Compon /
//                          ents\stack\zdo\" -I "C:\Users\William\Desktop\±œ“ /
//                          µ…Ëº∆\SRC\EndDevice Project for                   /
//                          editing\Projects\zstack\MyEnddevice\EndDevice\CC2 /
//                          530DB\..\..\..\..\..\Components\zmac\" -I         /
//                          "C:\Users\William\Desktop\±œ“µ…Ëº∆\SRC\EndDevice  /
//                          Project for editing\Projects\zstack\MyEnddevice\E /
//                          ndDevice\CC2530DB\..\..\..\..\..\Components\zmac\ /
//                          f8w\" -Ohz                                        /
//    List file          =  C:\Users\William\Desktop\±œ“µ…Ëº∆\SRC\EndDevice   /
//                          Project for editing\Projects\zstack\MyEnddevice\E /
//                          ndDevice\CC2530DB\EndDeviceEB\List\TemperatureCon /
//                          trol.s51                                          /
//                                                                            /
//                                                                            /
///////////////////////////////////////////////////////////////////////////////

        NAME TemperatureControl

        RTMODEL "__SystemLibrary", "CLib"
        RTMODEL "__calling_convention", "xdata_reentrant"
        RTMODEL "__code_model", "banked"
        RTMODEL "__core", "plain"
        RTMODEL "__data_model", "large"
        RTMODEL "__dptr_size", "16"
        RTMODEL "__extended_stack", "disabled"
        RTMODEL "__location_for_constants", "data"
        RTMODEL "__number_of_dptrs", "1"
        RTMODEL "__rt_version", "1"

        RSEG DOVERLAY:DATA:NOROOT(0)
        RSEG IOVERLAY:IDATA:NOROOT(0)
        RSEG ISTACK:IDATA:NOROOT(0)
        RSEG PSTACK:XDATA:NOROOT(0)
        RSEG XSTACK:XDATA:NOROOT(0)

        EXTERN ?BANKED_ENTER_XDATA
        EXTERN ?BANKED_LEAVE_XDATA
        EXTERN ?BDISPATCH
        EXTERN ?XSTACK_DISP0_8

        PUBLIC ??ControlTemperature?relay
        FUNCTION ??ControlTemperature?relay,0203H
        PUBLIC ControlTemperature
        FUNCTION ControlTemperature,0203H
        ARGFRAME XSTACK, 4, STACK
        LOCFRAME XSTACK, 9, STACK
        
        CFI Names cfiNames0
        CFI StackFrame CFA_SP SP IDATA
        CFI StackFrame CFA_PSP16 PSP16 XDATA
        CFI StackFrame CFA_XSP16 XSP16 XDATA
        CFI StaticOverlayFrame CFA_IOVERLAY IOVERLAY
        CFI StaticOverlayFrame CFA_DOVERLAY DOVERLAY
        CFI Resource `PSW.CY`:1, `B.BR0`:1, `B.BR1`:1, `B.BR2`:1, `B.BR3`:1
        CFI Resource `B.BR4`:1, `B.BR5`:1, `B.BR6`:1, `B.BR7`:1, `VB.BR8`:1
        CFI Resource `VB.BR9`:1, `VB.BR10`:1, `VB.BR11`:1, `VB.BR12`:1
        CFI Resource `VB.BR13`:1, `VB.BR14`:1, `VB.BR15`:1, VB:8, B:8, A:8
        CFI Resource PSW:8, DPL0:8, DPH0:8, R0:8, R1:8, R2:8, R3:8, R4:8, R5:8
        CFI Resource R6:8, R7:8, V0:8, V1:8, V2:8, V3:8, V4:8, V5:8, V6:8, V7:8
        CFI Resource V8:8, V9:8, V10:8, V11:8, V12:8, V13:8, V14:8, V15:8, SP:8
        CFI Resource PSPH:8, PSPL:8, PSP16:16, XSPH:8, XSPL:8, XSP16:16
        CFI VirtualResource ?RET:24
        CFI Resource ?BRET_EXT:8
        CFI VirtualResource ?RET_HIGH:8, ?RET_LOW:8
        CFI ResourceParts PSP16 PSPH, PSPL
        CFI ResourceParts XSP16 XSPH, XSPL
        CFI ResourceParts ?RET ?BRET_EXT, ?RET_HIGH, ?RET_LOW
        CFI EndNames cfiNames0
        
        CFI Common cfiCommon0 Using cfiNames0
        CFI CodeAlign 1
        CFI DataAlign -1
        CFI ReturnAddress ?RET CODE
        CFI CFA_DOVERLAY Used
        CFI CFA_IOVERLAY Used
        CFI CFA_SP SP+-3
        CFI CFA_PSP16 PSP16+0
        CFI CFA_XSP16 XSP16+0
        CFI `PSW.CY` SameValue
        CFI `B.BR0` SameValue
        CFI `B.BR1` SameValue
        CFI `B.BR2` SameValue
        CFI `B.BR3` SameValue
        CFI `B.BR4` SameValue
        CFI `B.BR5` SameValue
        CFI `B.BR6` SameValue
        CFI `B.BR7` SameValue
        CFI `VB.BR8` SameValue
        CFI `VB.BR9` SameValue
        CFI `VB.BR10` SameValue
        CFI `VB.BR11` SameValue
        CFI `VB.BR12` SameValue
        CFI `VB.BR13` SameValue
        CFI `VB.BR14` SameValue
        CFI `VB.BR15` SameValue
        CFI VB SameValue
        CFI B Undefined
        CFI A Undefined
        CFI PSW SameValue
        CFI DPL0 SameValue
        CFI DPH0 SameValue
        CFI R0 Undefined
        CFI R1 Undefined
        CFI R2 Undefined
        CFI R3 Undefined
        CFI R4 Undefined
        CFI R5 Undefined
        CFI R6 SameValue
        CFI R7 SameValue
        CFI V0 SameValue
        CFI V1 SameValue
        CFI V2 SameValue
        CFI V3 SameValue
        CFI V4 SameValue
        CFI V5 SameValue
        CFI V6 SameValue
        CFI V7 SameValue
        CFI V8 SameValue
        CFI V9 SameValue
        CFI V10 SameValue
        CFI V11 SameValue
        CFI V12 SameValue
        CFI V13 SameValue
        CFI V14 SameValue
        CFI V15 SameValue
        CFI PSPH Undefined
        CFI PSPL Undefined
        CFI XSPH Undefined
        CFI XSPL Undefined
        CFI ?RET Concat
        CFI ?BRET_EXT Frame(CFA_SP, 3)
        CFI ?RET_HIGH Frame(CFA_SP, 2)
        CFI ?RET_LOW Frame(CFA_SP, 1)
        CFI EndCommon cfiCommon0
        
ControlTemperature  SYMBOL "ControlTemperature"
??ControlTemperature?relay SYMBOL "?relay", ControlTemperature

        EXTERN POWER
        EXTERN TOKEN

// C:\Users\William\Desktop\±œ“µ…Ëº∆\SRC\EndDevice Project for editing\Projects\zstack\MyEnddevice\EndDevice\Source\TemperatureControl.c
//    1 
//    2 #include"EnddeviceVariable.h"
//    3 #include "TemperatureControl.h"
//    4 
//    5 
//    6 

        RSEG BANKED_CODE:CODE:NOROOT(0)
//    7 uint8 ControlTemperature(uint16 RoomSetValue,uint16 FLoorSetValue,
ControlTemperature:
        CFI Block cfiBlock0 Using cfiCommon0
        CFI Function ControlTemperature
        CODE
//    8                                   uint16 RoomSampleValue,uint16 FloorSampleValue)
//    9 {
        MOV     A,#-0x9
        LCALL   ?BANKED_ENTER_XDATA
        CFI DPH0 load(1, XDATA, add(CFA_XSP16, literal(-1)))
        CFI DPL0 load(1, XDATA, add(CFA_XSP16, literal(-2)))
        CFI ?BRET_EXT load(1, XDATA, add(CFA_XSP16, literal(-3)))
        CFI ?RET_HIGH load(1, XDATA, add(CFA_XSP16, literal(-4)))
        CFI ?RET_LOW load(1, XDATA, add(CFA_XSP16, literal(-5)))
        CFI R7 load(1, XDATA, add(CFA_XSP16, literal(-6)))
        CFI V0 load(1, XDATA, add(CFA_XSP16, literal(-7)))
        CFI VB load(1, XDATA, add(CFA_XSP16, literal(-8)))
        CFI R6 load(1, XDATA, add(CFA_XSP16, literal(-9)))
        CFI CFA_SP SP+0
        CFI CFA_XSP16 add(XSP16, 9)
        ; Saved register size: 9
        ; Auto size: 0
        MOV     A,#0x9
        LCALL   ?XSTACK_DISP0_8
        MOVX    A,@DPTR
        MOV     R6,A
        INC     DPTR
        MOVX    A,@DPTR
        MOV     R7,A
        MOV     A,#0xb
        LCALL   ?XSTACK_DISP0_8
        MOVX    A,@DPTR
        MOV     R4,A
        INC     DPTR
        MOVX    A,@DPTR
        MOV     R5,A
//   10   uint8 control = 0;
        MOV     R1,#0x0
//   11   bool over_heat = FALSE;
//   12   int16 Error = FloorSampleValue * 10 -  FloorSampleValue;
        MOV     A,R4
        MOV     B,#0x9
        MUL     AB
        MOV     R4,A
        MOV     R0,B
        MOV     B,#0x9
        MOV     A,R5
        MUL     AB
        ADD     A,R0
        MOV     R5,A
//   13   
//   14   if(Error < -SATURATION)
        CLR     C
        MOV     A,R4
        SUBB    A,#-0x1e
        MOV     A,R5
        SUBB    A,#-0x1
        MOV     C,0xD0 /* PSW */.2
        XRL     A,PSW
        RLC     A
        JNC     ??ControlTemperature_0
//   15   {
//   16     over_heat = TRUE; 
        MOV     R0,#0x1
        SJMP    ??ControlTemperature_1
//   17   }
//   18   else
//   19   {
//   20     over_heat = FALSE; 
??ControlTemperature_0:
        MOV     R0,#0x0
//   21   }
//   22   
//   23   if((POWER) && (!over_heat) && !Error)
??ControlTemperature_1:
        MOV     DPTR,#POWER
        MOVX    A,@DPTR
        JZ      ??ControlTemperature_2
        MOV     A,R0
        MOV     C,0xE0 /* A   */.0
        JC      ??ControlTemperature_2
        MOV     A,R4
        ORL     A,R5
        JNZ     ??ControlTemperature_2
//   24   {
//   25     Error = RoomSetValue * 10 - RoomSampleValue;
        MOV     A,R2
        MOV     B,#0xa
        MUL     AB
        MOV     R2,A
        MOV     R0,B
        MOV     B,#0xa
        MOV     A,R3
        MUL     AB
        ADD     A,R0
        MOV     R3,A
        MOV     A,R2
        CLR     C
        SUBB    A,R6
        MOV     R4,A
        MOV     A,R3
        SUBB    A,R7
        MOV     R5,A
//   26     if(TOKEN)// here is the token  now
        MOV     DPTR,#TOKEN
        MOVX    A,@DPTR
        JZ      ??ControlTemperature_2
//   27     {
//   28       if(Error < -SATURATION)
//   29       {
//   30           control = 0;      
//   31       }
//   32       if(Error > SATURATION)
        CLR     C
        MOV     A,R4
        SUBB    A,#0x1f
        MOV     A,R5
        SUBB    A,#0x0
        MOV     C,0xD0 /* PSW */.2
        XRL     A,PSW
        RLC     A
        JC      ??ControlTemperature_2
//   33       {
//   34           control = 1;  
        INC     R1
//   35       }
//   36     }
//   37     else// the token is took off
//   38     {
//   39        control = 0;
//   40     } 
//   41   }
//   42   else// not power,overheated or an error occur
//   43   {
//   44       control = 0;
//   45   } 
//   46   
//   47  return control;
??ControlTemperature_2:
        MOV     R7,#0x1
        LJMP    ?BANKED_LEAVE_XDATA
        CFI EndBlock cfiBlock0
//   48 }

        RSEG BANK_RELAYS:CODE:REORDER:NOROOT(0)
??ControlTemperature?relay:
        LCALL   ?BDISPATCH
        DATA
        DC24    ControlTemperature

        END
// 
// 125 bytes in segment BANKED_CODE
//   6 bytes in segment BANK_RELAYS
// 
// 131 bytes of CODE memory
//
//Errors: none
//Warnings: none
